(dp0
(I1
I3
tp1
ccopy_reg
_reconstructor
p2
(c__main__
Link
p3
c__builtin__
tuple
p4
(F2.38326149538187
(lp5
F6.088009015277311
aF4.143606555615058
aF4.3300052825663915
aF4.431020885496333
aF4.023739060571067
aF5.017041841828597
aF4.9300061314281205
aF4.278658280287854
aF5.6089664070054575
aF5.374740387574638
aF5.409583476733612
aF5.469495447701238
aF6.036351470854801
aF5.82962159429142
aF6.010783511384332
aF4.621913217793624
atp6
tp7
Rp8
s(I2
I18
tp9
g2
(g3
g4
(F1.3560098119317043
(lp10
F1.7060949471133895
aF2.0889721438641216
aF3.028459363892765
aF2.388585891348539
aF1.7517637814720108
aF3.0687011248067724
aF2.3802828727812604
aF3.08277578164758
aF2.985504621186399
aF2.2222109188748713
aF2.8998599412424255
aF3.586539391094512
aF3.6463152908671237
aF3.3944458615104045
aF3.9891879909531327
aF2.741085046710561
atp11
tp12
Rp13
s(I15
I20
tp14
g2
(g3
g4
(F4.184258354421287
(lp15
F5.321058260243004
aF5.214250928361157
aF5.132815153582619
aF4.647532813902866
aF4.20016800637888
aF4.6020527058482
aF4.450734764854781
aF4.320883251526071
aF5.364764318297395
aF5.115407231655185
aF6.148722737744565
aF5.766343491450571
aF5.374082040004234
aF5.096722124515166
aF4.354616690560315
aF6.202573895144864
atp16
tp17
Rp18
s(I17
I20
tp19
g2
(g3
g4
(F0.639588716594286
(lp20
F2.8959228714215834
aF5.232022753082005
aF1.9101185216544845
aF4.774367421583241
aF3.667025588665194
aF2.9599676256071614
aF2.578501226004536
aF2.2126783238689285
aF2.4578499739158106
aF3.049396469758091
aF3.129810692957432
aF3.5913520559539003
aF1.568597367675601
aF2.2590093098245387
aF1.7757390835071576
aF1.2061210787706922
atp21
tp22
Rp23
s(I3
I21
tp24
g2
(g3
g4
(F8.733857582904417
(lp25
F9.052797363932687
aF9.406442553866126
aF9.517846245970988
aF9.733262670144013
aF10.056845784745185
aF8.95261281847868
aF9.392812199962746
aF9.347154848733316
aF9.238068308658477
aF9.52128410902986
aF9.314257796797829
aF9.336209752826516
aF9.142748297860557
aF9.386550444001662
aF9.437299865858115
aF9.952489716199242
atp26
tp27
Rp28
s(I8
I9
tp29
g2
(g3
g4
(F5.425844670819386
(lp30
F12.00834171090435
aF8.240526422554115
aF8.699824365684355
aF8.215430606418662
aF8.192493770552002
aF9.574197059446021
aF11.177452439060989
aF11.053462639852416
aF11.446875324262585
aF6.473738247378865
aF9.58537711070516
aF8.40166719357267
aF7.888468803500121
aF7.311407619654006
aF8.158680007114473
aF11.145962589506683
atp31
tp32
Rp33
s(I13
I17
tp34
g2
(g3
g4
(F8.810820142460917
(lp35
F11.183807237483563
aF12.329999060462034
aF12.521227031243699
aF11.447978984949895
aF13.930213409514543
aF11.146070982063204
aF10.54854985466831
aF11.637530672587376
aF10.068488951438114
aF14.006242558352
aF15.306012893451813
aF10.784358677379844
aF11.927172529186262
aF10.549627161666075
aF14.01940857745437
aF18.4119681401585
atp36
tp37
Rp38
s(I2
I12
tp39
g2
(g3
g4
(F6.5623543682061385
(lp40
F7.184325444821235
aF7.161290963797576
aF7.637705322147679
aF6.968237100863799
aF7.05876402785056
aF7.1586964773846065
aF7.203725063217394
aF7.008321256269516
aF7.276160916323928
aF7.765620696096971
aF6.83818362695539
aF6.687036737304255
aF6.995029369360326
aF7.337495952679665
aF7.392768676104091
aF7.646047531268078
atp41
tp42
Rp43
s(I5
I8
tp44
g2
(g3
g4
(F5.075560433011219
(lp45
F6.61241096447146
aF6.145303018176514
aF6.12729195248098
aF5.876776431668511
aF8.999752681369197
aF5.602052371034089
aF7.180863838936196
aF6.682708844553919
aF7.123885569056542
aF6.2045153241875735
aF6.984851992557396
aF7.312077722399558
aF5.501859224235265
aF6.5980030708263495
aF6.570211960496938
aF5.93880615726124
atp46
tp47
Rp48
s(I11
I10
tp49
g2
(g3
g4
(F7.394221384521683
(lp50
F7.553483384518436
aF8.281474007773353
aF7.66971916956486
aF7.882079426851765
aF8.7019694927205
aF7.738541398164975
aF7.627820941848633
aF8.209029141715337
aF9.056502599002783
aF8.252284976329332
aF7.653640244868151
aF8.845756043093395
aF7.4077907759003345
aF8.782574670419324
aF7.501706572974427
aF7.927411303502725
atp51
tp52
Rp53
s(I6
I7
tp54
g2
(g3
g4
(F4.445165477628043
(lp55
F6.475519548290633
aF5.187801472162309
aF6.628233992643675
aF6.2696357935847065
aF5.533217495607622
aF5.859675849750473
aF5.309417573716504
aF5.493129715589446
aF6.896801679455331
aF5.849734558334896
aF6.352610390865519
aF7.134327728799694
aF6.559592280192689
aF6.3480074956001475
aF6.8011082075514775
aF7.515474633977257
atp56
tp57
Rp58
s(I16
I10
tp59
g2
(g3
g4
(F2.1680437441829303
(lp60
F2.180250092629494
aF2.399458348691187
aF2.3074726083559134
aF2.1748316771404856
aF2.4540864557964133
aF2.2375660833224553
aF2.200237064789651
aF2.196602548190941
aF2.187705810940968
aF2.3644839261229413
aF2.3467096308599533
aF2.190144853613776
aF2.209290334910662
aF2.3849618886097614
aF2.1762391021946046
aF2.649706629579084
atp61
tp62
Rp63
s(I19
I7
tp64
g2
(g3
g4
(F9.568116469906979
(lp65
F14.91026631248705
aF11.119557098287295
aF12.78970596754346
aF11.279893807568632
aF12.809327168230865
aF10.707521282794755
aF14.749128827949885
aF13.043634027364963
aF13.012606580740666
aF10.28912696481375
aF12.824603979804333
aF11.605018785364187
aF15.311377636683915
aF11.888347693897916
aF13.202142528548823
aF12.937958104759016
atp66
tp67
Rp68
s(I1
I16
tp69
g2
(g3
g4
(F3.1620040836023646
(lp70
F3.3255880373130218
aF3.178418542035907
aF3.531868162308751
aF3.262493283569769
aF3.676122037880545
aF3.5975095637484684
aF3.1733634691682298
aF3.3338704505657373
aF3.4907455602172535
aF3.368882414116573
aF3.351861177764348
aF3.2337946595897713
aF3.3787136663731796
aF3.457454238768495
aF3.2359539482181665
aF3.2554116853281077
atp71
tp72
Rp73
s(I17
I7
tp74
g2
(g3
g4
(F9.492820492191292
(lp75
F10.699556414883238
aF11.826319880299035
aF10.855631770002944
aF11.554261740382303
aF11.398065691438063
aF11.379891770097515
aF9.846056567875367
aF9.786127065844232
aF10.025744270627358
aF11.69023864580193
aF10.138876935774828
aF11.490491277647651
aF11.530013183097314
aF11.326760738454649
aF10.134376876503513
aF10.243667322943386
atp76
tp77
Rp78
s(I2
I23
tp79
g2
(g3
g4
(F4.371876980057262
(lp80
F5.12403202878633
aF5.8218728396334924
aF6.464546225045467
aF5.218285644964448
aF5.458656669932265
aF5.018870119478578
aF5.111713217211955
aF6.656474600778744
aF5.363154808619265
aF6.522031737684468
aF5.105282607284635
aF5.629446388676535
aF5.3562410617188405
aF5.856320782396611
aF5.472268395163265
aF5.751200175059331
atp81
tp82
Rp83
s(I16
I9
tp84
g2
(g3
g4
(F9.601765615917072
(lp85
F11.937996699128092
aF12.50132374599236
aF12.190546584599755
aF10.753174342719543
aF10.35522482200173
aF11.40120433601241
aF10.431468465831244
aF12.81519369334573
aF13.489375180146464
aF10.512110390646091
aF10.075979385977531
aF12.265242373008954
aF11.234844952622593
aF10.739790718876542
aF16.199168516766495
aF11.249160254614678
atp86
tp87
Rp88
s(I2
I13
tp89
g2
(g3
g4
(F7.114707941570202
(lp90
F9.237068333878366
aF9.72097261479178
aF8.514733924413544
aF8.78200844796873
aF8.527976446201395
aF10.721222758943652
aF8.361676060101924
aF10.254689414429656
aF11.505190518145316
aF8.972848547221583
aF11.403405003379739
aF9.451519928930171
aF7.86343677468279
aF11.099359577013983
aF9.276777567110086
aF10.461773628782462
atp91
tp92
Rp93
s(I17
I23
tp94
g2
(g3
g4
(F9.046857082173217
(lp95
F12.548335521765484
aF12.201426258743036
aF16.91611286959414
aF11.872085984435484
aF14.051222621051384
aF12.664941113209117
aF16.05744859081018
aF15.609119641759468
aF13.625683069513528
aF10.26560329469177
aF16.505618160037486
aF12.265967813493365
aF12.018019584705087
aF15.442791761231266
aF11.6210346880574
aF13.293221701070461
atp96
tp97
Rp98
s(I12
I10
tp99
g2
(g3
g4
(F4.697153603604061
(lp100
F5.969225416546781
aF5.507021010471912
aF6.179036150586265
aF4.761489975331893
aF6.49872359365337
aF4.902550124835788
aF4.910528528900342
aF5.430546749761993
aF6.403390586556256
aF5.043725062020878
aF6.961821113867284
aF5.545467470550555
aF5.445334405567127
aF5.91656492841143
aF4.930896650288968
aF5.609839350861884
atp101
tp102
Rp103
s(I20
I22
tp104
g2
(g3
g4
(F7.4936277120745824
(lp105
F8.203545393745314
aF8.614553081767896
aF8.0581324866804
aF8.611736107900349
aF7.850689434876486
aF9.626240052351946
aF8.633908722979363
aF8.609290307067058
aF7.925558151336268
aF8.664547079017831
aF8.90131238609719
aF8.901481095812702
aF9.268412089776639
aF8.694020796508324
aF8.366943488705285
aF7.697749155571416
atp106
tp107
Rp108
s(I19
I6
tp109
g2
(g3
g4
(F0.19725815704098149
(lp110
F1.867296232975619
aF2.769348164867224
aF2.0318811608330396
aF2.377708419071901
aF3.8700075490504053
aF0.85861842974421
aF1.6335126853744517
aF1.6183361213180982
aF2.017200893536721
aF1.582904907857189
aF2.0220946574492142
aF2.297886982795882
aF2.7234401135618462
aF1.0787564669768868
aF1.1394365779055442
aF1.9726769816282164
atp111
tp112
Rp113
s(I16
I4
tp114
g2
(g3
g4
(F9.282521115379348
(lp115
F14.260770753500635
aF11.83517092676762
aF12.65386133500831
aF13.933693754765759
aF14.33593465312547
aF13.583228911541216
aF12.277962147095131
aF14.203743056368639
aF12.147641883909575
aF13.95115209486373
aF12.472985463577709
aF10.273193521651098
aF13.82609749111613
aF11.173123759643985
aF14.801565592688036
aF11.481957708476827
atp116
tp117
Rp118
s(I17
I10
tp119
g2
(g3
g4
(F9.614895360447058
(lp120
F9.956785339400634
aF10.027817450737134
aF9.688645532350389
aF9.732171926911342
aF9.79398947456386
aF9.9105527957121
aF9.763040902134184
aF10.05598879803066
aF9.838025389931499
aF10.10383001263327
aF10.079584294557558
aF10.433424434707593
aF9.851159575263898
aF9.660141990840186
aF11.233220518705856
aF10.097653408541001
atp121
tp122
Rp123
s(I15
I9
tp124
g2
(g3
g4
(F9.634974889022537
(lp125
F11.15709854111779
aF11.727418535222753
aF10.595853642493331
aF10.398633420542408
aF10.438272855948648
aF10.065810402380759
aF10.585810074748997
aF10.045288269336087
aF10.498005609054017
aF12.097332592856775
aF10.230792061632696
aF10.108013688145121
aF11.225060920395796
aF11.751105896008635
aF10.50542008918831
aF10.320820546886559
atp126
tp127
Rp128
s(I13
I19
tp129
g2
(g3
g4
(F4.196571500903513
(lp130
F4.43668578460159
aF4.815090265266048
aF4.585136196062012
aF4.467815248669781
aF4.388915126150967
aF4.593809664732911
aF4.682570571640367
aF5.576431824806211
aF4.530457018365488
aF4.477199578008444
aF4.852544266470465
aF4.9791382446135115
aF4.697467673816771
aF5.5585978024870775
aF4.453359983857145
aF4.317488174136667
atp131
tp132
Rp133
s(I18
I21
tp134
g2
(g3
g4
(F2.915156731966552
(lp135
F3.065819452403793
aF3.4106375345794007
aF2.9224478597170123
aF3.152819281125187
aF3.0844488936940277
aF3.3761932431477977
aF2.9803790186456025
aF3.0688335135178604
aF2.9560533035094956
aF3.9873094895682577
aF3.7386689883154034
aF3.7069212298994296
aF3.4793724277811844
aF3.09501658827685
aF3.731662537336936
aF4.647161723376512
atp136
tp137
Rp138
s(I12
I22
tp139
g2
(g3
g4
(F6.850510536741243
(lp140
F7.29471002989539
aF7.193225648806233
aF7.327831325772682
aF7.869059126739436
aF8.037883973492221
aF7.081537059054995
aF7.163788186408544
aF7.318105209026291
aF7.635814676068056
aF7.390614424900332
aF7.395377087655588
aF7.736136684305811
aF7.058267683031594
aF7.09250710516929
aF7.941887597992544
aF8.015805929959567
atp141
tp142
Rp143
s(I2
I7
tp144
g2
(g3
g4
(F6.414156637534841
(lp145
F6.5787681696397735
aF6.925081108133398
aF6.8368297194569765
aF6.954408612978675
aF6.903350339166771
aF7.097791764959859
aF6.711738004707639
aF6.890821197054678
aF6.683722371238703
aF6.658582853566614
aF6.582917227226618
aF6.9305309141574964
aF6.856088897082231
aF6.796838127626268
aF6.791710835232046
aF6.7471587055274025
atp146
tp147
Rp148
s(I16
I5
tp149
g2
(g3
g4
(F2.681319374256639
(lp150
F2.703056842613351
aF2.7442291474281877
aF2.8392586954402756
aF2.885141704598921
aF2.752873276795454
aF3.0774329455313527
aF2.704932967610102
aF2.69299335683624
aF2.832146317041455
aF2.713632930377181
aF2.8836338031728372
aF2.893110909807891
aF3.1124018306814007
aF2.73899314486874
aF3.1406642052457823
aF2.736408643949533
atp151
tp152
Rp153
s(I13
I14
tp154
g2
(g3
g4
(F2.2486481659097377
(lp155
F3.1152205049086836
aF3.817703521452768
aF4.103656443016524
aF3.044307802832032
aF3.3844830615498553
aF2.683518234202748
aF3.63267780516255
aF3.0442612016342894
aF2.8816624949562755
aF2.971508499848518
aF2.6973092374231715
aF3.5331056349936976
aF3.9643081350512075
aF3.3984724936880184
aF3.805515308147056
aF2.8414728184122557
atp156
tp157
Rp158
s(I11
I3
tp159
g2
(g3
g4
(F5.1962233484114275
(lp160
F6.489873072225395
aF5.906504315289743
aF7.056241739871714
aF7.171963077328367
aF6.872379083265924
aF9.160911144275932
aF7.697936113405499
aF8.783460259510736
aF8.293026104375272
aF7.307416537660471
aF8.239504453008433
aF12.406296113598339
aF10.368959832773296
aF7.638690935134269
aF8.417892690066092
aF7.255390180036048
atp161
tp162
Rp163
s(I2
I4
tp164
g2
(g3
g4
(F9.86602105858347
(lp165
F13.69217834126852
aF13.894710137310351
aF12.051828722473989
aF14.59521956125958
aF12.052616561264436
aF13.568197157067953
aF12.06704489875518
aF14.591462045684265
aF11.354404967820496
aF13.531880272090367
aF12.839080789449975
aF18.937077430426058
aF13.219761590765271
aF12.535047121327862
aF16.217002402783898
aF16.753184767603486
atp166
tp167
Rp168
s(I1
I7
tp169
g2
(g3
g4
(F2.3826836081502947
(lp170
F2.433092957420567
aF3.570662461228012
aF2.465285819868103
aF2.649135735037642
aF3.490215120804537
aF3.3369564649816605
aF3.778704610239816
aF2.9237503323980025
aF3.09500961493329
aF3.3174316414494776
aF3.482067967821202
aF2.3976542813562416
aF3.0002005038595723
aF2.4832995894964136
aF3.254068327813984
aF3.235238292682208
atp171
tp172
Rp173
s(I14
I3
tp174
g2
(g3
g4
(F9.307794975733227
(lp175
F10.252560889686684
aF9.657305990561996
aF10.139725112557198
aF10.105937831989985
aF9.513499582586443
aF10.640736804603794
aF9.795324195897454
aF9.65502711940469
aF10.611108083896495
aF9.691016191532759
aF10.153237091257676
aF9.870798650827634
aF10.373284730235586
aF10.552460668634053
aF9.471922287376985
aF10.121458435143587
atp176
tp177
Rp178
s(I21
I7
tp179
g2
(g3
g4
(F0.11681156461962217
(lp180
F0.3578048023924135
aF0.7217307694810902
aF0.7461767430937937
aF0.4102587175809541
aF0.32136092298020635
aF0.2783202894748972
aF0.7527025594674037
aF0.3952032080869338
aF0.7613030829134203
aF0.6423532223447703
aF0.5585228435288049
aF0.34517872472408534
aF0.27942470505040107
aF0.7194056290974524
aF0.5192856250094718
aF0.262918678127867
atp181
tp182
Rp183
s(I3
I10
tp184
g2
(g3
g4
(F5.304432427745798
(lp185
F8.34696321880334
aF7.629994315517788
aF9.254501831335922
aF8.118822823118915
aF6.459218181051288
aF7.682973555055565
aF7.06643661106531
aF6.911546843269311
aF8.493376016196791
aF6.641304314075532
aF12.779008486723223
aF5.940687934975116
aF5.781036015031432
aF6.692856629401486
aF7.586254441205504
aF7.541656890235611
atp186
tp187
Rp188
s.