(dp0
(I1
I3
tp1
ccopy_reg
_reconstructor
p2
(c__main__
Link
p3
c__builtin__
tuple
p4
(F8.944492383972538
(lp5
F5.0
aF5.105581759853857
aF5.17083487603557
aF5.17083487603557
aF5.105581759853857
aF5.0
aF4.894418240146143
aF4.82916512396443
aF4.82916512396443
aF4.894418240146143
aF5.0
aF5.105581759853857
aF5.17083487603557
aF5.17083487603557
aF5.105581759853857
aF5.0
aF4.894418240146143
aF4.82916512396443
aF4.82916512396443
aF4.894418240146143
aF5.0
aF5.105581759853857
aF5.17083487603557
aF5.17083487603557
aF5.105581759853857
aF5.0
aF4.894418240146143
aF4.82916512396443
aF4.82916512396443
aF4.894418240146143
aF5.0
aF5.105581759853857
aF5.17083487603557
aF5.1708348760355705
aF5.105581759853857
aF5.0
aF4.894418240146143
aF4.82916512396443
aF4.8291651239644295
aF4.894418240146143
aF5.0
aF5.105581759853857
aF5.17083487603557
aF5.1708348760355705
aF5.105581759853857
aF5.0
aF4.894418240146143
aF4.82916512396443
aF4.8291651239644295
aF4.894418240146143
aF5.0
aF5.105581759853856
aF5.17083487603557
aF5.17083487603557
aF5.105581759853857
aF5.000000000000001
aF4.894418240146143
aF4.8291651239644295
aF4.8291651239644295
aF4.894418240146142
aF7.0
aF6.918451312392604
aF6.8546791746056215
aF6.822585080553737
aF6.8291651239644295
aF6.872984941233055
aF6.944492383972536
aF7.028099762721719
aF7.105581759853856
aF7.160048311008433
aF7.179626418733829
aF7.160048311008434
aF7.105581759853857
aF7.028099762721719
aF6.944492383972537
aF6.872984941233055
aF6.8291651239644295
aF6.822585080553737
aF6.8546791746056215
aF6.9184513123926035
aF7.0
aF7.0815486876073965
aF7.145320825394378
aF7.177414919446263
aF7.1708348760355705
aF7.127015058766945
aF7.055507616027463
aF6.971900237278282
aF6.894418240146143
aF6.839951688991567
aF6.820373581266171
aF6.839951688991567
aF6.894418240146143
aF6.97190023727828
aF7.055507616027463
aF7.127015058766944
aF7.17083487603557
aF7.177414919446263
aF7.1453208253943785
aF7.0815486876073965
aF6.0
aF6.055507616027464
aF6.105581759853856
aF6.145320825394378
aF6.17083487603557
aF6.179626418733829
aF6.17083487603557
aF6.1453208253943785
aF6.105581759853857
aF6.055507616027463
aF6.000000000000001
aF5.944492383972537
aF5.894418240146143
aF5.8546791746056215
aF5.8291651239644295
aF5.820373581266171
aF5.8291651239644295
aF5.8546791746056215
aF5.894418240146142
aF5.944492383972536
aF6.0
aF6.055507616027463
aF6.105581759853857
aF6.145320825394378
aF6.17083487603557
aF6.179626418733829
aF6.1708348760355705
aF6.1453208253943785
aF6.105581759853857
aF6.055507616027463
aF6.0
aF5.944492383972537
aF5.894418240146143
aF5.8546791746056215
aF5.82916512396443
aF5.820373581266171
aF5.8291651239644295
aF5.8546791746056215
aF5.894418240146143
aF5.944492383972536
aF6.0
aF6.055507616027463
aF6.105581759853856
aF6.145320825394378
aF6.17083487603557
aF6.179626418733829
aF6.17083487603557
aF6.1453208253943785
aF6.105581759853857
aF6.055507616027463
aF6.000000000000001
aF5.944492383972537
aF5.894418240146143
aF5.8546791746056215
aF5.8291651239644295
aF5.820373581266171
aF5.8291651239644295
aF5.8546791746056215
aF5.894418240146142
aF5.944492383972536
aF6.0
aF6.055507616027463
aF6.105581759853857
aF6.145320825394378
aF6.17083487603557
aF6.179626418733829
aF6.1708348760355705
aF6.1453208253943785
aF6.105581759853857
aF6.055507616027463
aF6.0
aF5.944492383972537
aF5.894418240146143
aF5.8546791746056215
aF5.82916512396443
aF5.820373581266171
aF5.8291651239644295
aF5.8546791746056215
aF5.894418240146143
aF5.944492383972536
aF9.0
aF9.055507616027464
aF9.105581759853857
aF9.145320825394379
aF9.17083487603557
aF9.179626418733829
aF9.17083487603557
aF9.145320825394379
aF9.105581759853857
aF9.055507616027464
aF9.000000000000002
aF8.944492383972538
aF8.894418240146143
aF8.854679174605621
aF8.82916512396443
aF8.820373581266171
aF8.82916512396443
aF8.854679174605621
aF8.894418240146141
aF8.944492383972536
aF9.0
aF9.055507616027464
aF9.105581759853857
aF9.145320825394379
aF9.170834876035569
aF9.179626418733829
aF9.17083487603557
aF9.145320825394379
aF9.105581759853857
aF9.055507616027464
aF9.0
aF8.944492383972536
aF8.894418240146143
aF8.854679174605623
aF8.82916512396443
aF8.820373581266171
aF8.82916512396443
aF8.854679174605621
aF8.894418240146143
aF8.944492383972538
atp6
tp7
Rp8
s(I2
I18
tp9
g2
(g3
g4
(F8.95472717211213
(lp10
F5.0
aF5.086114035947735
aF5.139335437071866
aF5.139335437071866
aF5.086114035947735
aF5.0
aF4.913885964052265
aF4.860664562928134
aF4.860664562928134
aF4.913885964052265
aF5.0
aF5.086114035947735
aF5.139335437071866
aF5.139335437071866
aF5.086114035947735
aF5.0
aF4.913885964052265
aF4.860664562928134
aF4.860664562928134
aF4.913885964052265
aF5.0
aF5.086114035947735
aF5.139335437071866
aF5.139335437071866
aF5.086114035947735
aF5.0
aF4.913885964052265
aF4.860664562928134
aF4.860664562928134
aF4.913885964052265
aF5.0
aF5.086114035947735
aF5.139335437071866
aF5.139335437071866
aF5.086114035947735
aF5.0
aF4.913885964052265
aF4.860664562928134
aF4.860664562928134
aF4.913885964052265
aF5.0
aF5.086114035947735
aF5.139335437071866
aF5.139335437071866
aF5.086114035947736
aF5.0
aF4.913885964052265
aF4.860664562928134
aF4.860664562928134
aF4.913885964052264
aF5.0
aF5.086114035947735
aF5.139335437071866
aF5.139335437071866
aF5.086114035947736
aF5.000000000000001
aF4.913885964052265
aF4.860664562928134
aF4.860664562928134
aF4.913885964052264
aF7.0
aF6.933487691189897
aF6.881474197822732
aF6.855297782760894
aF6.860664562928134
aF6.896404650275766
aF6.95472717211213
aF7.022918579691136
aF7.086114035947735
aF7.130537756016111
aF7.146505948578795
aF7.130537756016112
aF7.086114035947736
aF7.022918579691135
aF6.954727172112131
aF6.896404650275766
aF6.860664562928134
aF6.855297782760894
aF6.881474197822732
aF6.933487691189896
aF7.0
aF7.066512308810104
aF7.118525802177267
aF7.144702217239106
aF7.139335437071866
aF7.103595349724234
aF7.04527282788787
aF6.977081420308865
aF6.913885964052265
aF6.869462243983888
aF6.853494051421205
aF6.869462243983888
aF6.913885964052265
aF6.977081420308864
aF7.04527282788787
aF7.103595349724233
aF7.139335437071866
aF7.144702217239106
aF7.118525802177268
aF7.066512308810104
aF6.0
aF6.04527282788787
aF6.086114035947735
aF6.118525802177267
aF6.139335437071866
aF6.146505948578795
aF6.139335437071866
aF6.118525802177268
aF6.086114035947736
aF6.04527282788787
aF6.000000000000001
aF5.954727172112131
aF5.913885964052265
aF5.881474197822732
aF5.860664562928134
aF5.853494051421205
aF5.860664562928134
aF5.881474197822732
aF5.913885964052264
aF5.95472717211213
aF6.0
aF6.04527282788787
aF6.086114035947736
aF6.118525802177267
aF6.139335437071866
aF6.146505948578795
aF6.139335437071866
aF6.118525802177268
aF6.086114035947736
aF6.04527282788787
aF6.0
aF5.954727172112131
aF5.913885964052265
aF5.881474197822732
aF5.860664562928134
aF5.853494051421205
aF5.860664562928134
aF5.881474197822732
aF5.913885964052265
aF5.95472717211213
aF6.0
aF6.04527282788787
aF6.086114035947735
aF6.118525802177267
aF6.139335437071866
aF6.146505948578795
aF6.139335437071866
aF6.118525802177268
aF6.086114035947736
aF6.04527282788787
aF6.000000000000001
aF5.954727172112131
aF5.913885964052265
aF5.881474197822732
aF5.860664562928134
aF5.853494051421205
aF5.860664562928134
aF5.881474197822732
aF5.913885964052264
aF5.95472717211213
aF6.0
aF6.04527282788787
aF6.086114035947736
aF6.118525802177267
aF6.139335437071866
aF6.146505948578795
aF6.139335437071866
aF6.118525802177268
aF6.086114035947736
aF6.04527282788787
aF6.0
aF5.954727172112131
aF5.913885964052265
aF5.881474197822732
aF5.860664562928134
aF5.853494051421205
aF5.860664562928134
aF5.881474197822732
aF5.913885964052265
aF5.95472717211213
aF9.0
aF9.04527282788787
aF9.086114035947734
aF9.118525802177267
aF9.139335437071866
aF9.146505948578795
aF9.139335437071866
aF9.118525802177267
aF9.086114035947736
aF9.04527282788787
aF9.0
aF8.95472717211213
aF8.913885964052264
aF8.881474197822733
aF8.860664562928134
aF8.853494051421205
aF8.860664562928134
aF8.881474197822733
aF8.913885964052264
aF8.954727172112129
aF9.0
aF9.04527282788787
aF9.086114035947736
aF9.118525802177267
aF9.139335437071866
aF9.146505948578795
aF9.139335437071866
aF9.118525802177267
aF9.086114035947736
aF9.04527282788787
aF9.0
aF8.954727172112129
aF8.913885964052264
aF8.881474197822733
aF8.860664562928134
aF8.853494051421205
aF8.860664562928134
aF8.881474197822733
aF8.913885964052264
aF8.95472717211213
atp11
tp12
Rp13
s(I15
I20
tp14
g2
(g3
g4
(F8.942348693874317
(lp15
F5.0
aF5.109659300727517
aF5.1774324757596695
aF5.1774324757596695
aF5.109659300727517
aF5.0
aF4.890340699272483
aF4.8225675242403305
aF4.8225675242403305
aF4.890340699272483
aF5.0
aF5.109659300727517
aF5.1774324757596695
aF5.1774324757596695
aF5.109659300727517
aF5.0
aF4.890340699272483
aF4.8225675242403305
aF4.8225675242403305
aF4.890340699272483
aF5.0
aF5.109659300727517
aF5.1774324757596695
aF5.1774324757596695
aF5.109659300727517
aF5.0
aF4.890340699272483
aF4.8225675242403305
aF4.8225675242403305
aF4.890340699272483
aF5.0
aF5.109659300727517
aF5.1774324757596695
aF5.1774324757596695
aF5.109659300727517
aF5.0
aF4.890340699272483
aF4.8225675242403305
aF4.8225675242403305
aF4.890340699272483
aF5.0
aF5.109659300727517
aF5.1774324757596695
aF5.1774324757596695
aF5.109659300727517
aF5.0
aF4.890340699272483
aF4.8225675242403305
aF4.8225675242403305
aF4.890340699272483
aF5.0
aF5.109659300727516
aF5.1774324757596695
aF5.1774324757596695
aF5.109659300727517
aF5.000000000000001
aF4.890340699272483
aF4.8225675242403305
aF4.8225675242403305
aF4.890340699272482
aF7.0
aF6.915301922693353
aF6.849066921067133
aF6.815733361216603
aF6.8225675242403305
aF6.868079651773877
aF6.942348693874315
aF7.029184968454191
aF7.109659300727516
aF7.166229336318112
aF7.186563545614364
aF7.166229336318113
aF7.109659300727517
aF7.029184968454191
aF6.942348693874316
aF6.868079651773877
aF6.8225675242403305
aF6.815733361216603
aF6.849066921067133
aF6.915301922693352
aF7.0
aF7.084698077306647
aF7.150933078932866
aF7.184266638783397
aF7.1774324757596695
aF7.131920348226123
aF7.057651306125684
aF6.970815031545809
aF6.890340699272483
aF6.833770663681888
aF6.813436454385636
aF6.833770663681888
aF6.890340699272483
aF6.970815031545808
aF7.057651306125684
aF7.131920348226122
aF7.1774324757596695
aF7.184266638783397
aF7.150933078932867
aF7.084698077306647
aF6.0
aF6.057651306125685
aF6.109659300727516
aF6.150933078932866
aF6.1774324757596695
aF6.186563545614364
aF6.1774324757596695
aF6.150933078932867
aF6.109659300727517
aF6.057651306125684
aF6.000000000000001
aF5.942348693874316
aF5.890340699272483
aF5.849066921067133
aF5.8225675242403305
aF5.813436454385636
aF5.8225675242403305
aF5.849066921067133
aF5.890340699272482
aF5.942348693874315
aF6.0
aF6.057651306125685
aF6.109659300727517
aF6.150933078932866
aF6.1774324757596695
aF6.186563545614364
aF6.1774324757596695
aF6.150933078932867
aF6.109659300727517
aF6.057651306125684
aF6.0
aF5.942348693874316
aF5.890340699272483
aF5.849066921067133
aF5.822567524240331
aF5.813436454385636
aF5.8225675242403305
aF5.849066921067133
aF5.890340699272483
aF5.942348693874315
aF6.0
aF6.057651306125684
aF6.109659300727516
aF6.150933078932866
aF6.1774324757596695
aF6.186563545614364
aF6.1774324757596695
aF6.150933078932867
aF6.109659300727517
aF6.057651306125684
aF6.000000000000001
aF5.942348693874316
aF5.890340699272483
aF5.849066921067133
aF5.8225675242403305
aF5.813436454385636
aF5.8225675242403305
aF5.849066921067133
aF5.890340699272482
aF5.942348693874315
aF6.0
aF6.057651306125684
aF6.109659300727517
aF6.150933078932866
aF6.1774324757596695
aF6.186563545614364
aF6.1774324757596695
aF6.150933078932867
aF6.109659300727517
aF6.057651306125685
aF6.0
aF5.942348693874316
aF5.890340699272483
aF5.849066921067133
aF5.822567524240331
aF5.813436454385636
aF5.8225675242403305
aF5.849066921067133
aF5.890340699272483
aF5.942348693874315
aF9.0
aF9.057651306125685
aF9.109659300727516
aF9.150933078932866
aF9.17743247575967
aF9.186563545614364
aF9.17743247575967
aF9.150933078932868
aF9.109659300727518
aF9.057651306125685
aF9.000000000000002
aF8.942348693874317
aF8.890340699272484
aF8.849066921067134
aF8.82256752424033
aF8.813436454385636
aF8.82256752424033
aF8.849066921067134
aF8.890340699272482
aF8.942348693874315
aF9.0
aF9.057651306125685
aF9.109659300727518
aF9.150933078932866
aF9.17743247575967
aF9.186563545614364
aF9.17743247575967
aF9.150933078932868
aF9.109659300727518
aF9.057651306125685
aF9.0
aF8.942348693874315
aF8.890340699272482
aF8.849066921067134
aF8.82256752424033
aF8.813436454385636
aF8.82256752424033
aF8.849066921067134
aF8.890340699272484
aF8.942348693874317
atp16
tp17
Rp18
s(I17
I20
tp19
g2
(g3
g4
(F8.967307052743449
(lp20
F5.0
aF5.062185681050476
aF5.10061854555323
aF5.10061854555323
aF5.062185681050476
aF5.0
aF4.937814318949524
aF4.89938145444677
aF4.89938145444677
aF4.937814318949524
aF5.0
aF5.062185681050475
aF5.10061854555323
aF5.10061854555323
aF5.062185681050476
aF5.0
aF4.937814318949525
aF4.89938145444677
aF4.89938145444677
aF4.937814318949524
aF5.0
aF5.062185681050475
aF5.10061854555323
aF5.10061854555323
aF5.062185681050476
aF5.0
aF4.937814318949525
aF4.89938145444677
aF4.89938145444677
aF4.937814318949524
aF5.0
aF5.062185681050475
aF5.10061854555323
aF5.10061854555323
aF5.062185681050476
aF5.0
aF4.937814318949525
aF4.89938145444677
aF4.89938145444677
aF4.937814318949524
aF5.0
aF5.062185681050475
aF5.10061854555323
aF5.10061854555323
aF5.062185681050476
aF5.0
aF4.937814318949525
aF4.89938145444677
aF4.89938145444677
aF4.937814318949524
aF5.0
aF5.062185681050475
aF5.10061854555323
aF5.10061854555323
aF5.062185681050476
aF5.000000000000001
aF4.937814318949525
aF4.89938145444677
aF4.89938145444677
aF4.937814318949524
aF7.0
aF6.951969348828266
aF6.914408752889939
aF6.895505931994767
aF6.89938145444677
aF6.925190506920688
aF6.967307052743448
aF7.016550234478243
aF7.062185681050475
aF7.094265460575898
aF7.105796599707018
aF7.094265460575898
aF7.062185681050476
aF7.016550234478243
aF6.967307052743448
aF6.925190506920689
aF6.89938145444677
aF6.895505931994767
aF6.914408752889939
aF6.951969348828266
aF7.0
aF7.048030651171734
aF7.085591247110061
aF7.104494068005233
aF7.10061854555323
aF7.074809493079312
aF7.032692947256552
aF6.983449765521757
aF6.937814318949525
aF6.905734539424102
aF6.894203400292982
aF6.905734539424102
aF6.937814318949525
aF6.9834497655217564
aF7.032692947256552
aF7.074809493079311
aF7.10061854555323
aF7.104494068005233
aF7.085591247110061
aF7.048030651171734
aF6.0
aF6.032692947256552
aF6.062185681050475
aF6.085591247110061
aF6.10061854555323
aF6.105796599707018
aF6.10061854555323
aF6.085591247110061
aF6.062185681050476
aF6.032692947256552
aF6.000000000000001
aF5.967307052743448
aF5.937814318949525
aF5.914408752889939
aF5.89938145444677
aF5.894203400292982
aF5.89938145444677
aF5.914408752889939
aF5.937814318949524
aF5.967307052743448
aF6.0
aF6.032692947256552
aF6.062185681050476
aF6.085591247110061
aF6.10061854555323
aF6.105796599707018
aF6.10061854555323
aF6.085591247110061
aF6.062185681050476
aF6.032692947256552
aF6.0
aF5.967307052743448
aF5.937814318949525
aF5.914408752889939
aF5.899381454446771
aF5.894203400292982
aF5.89938145444677
aF5.914408752889939
aF5.937814318949525
aF5.967307052743448
aF6.0
aF6.032692947256552
aF6.062185681050475
aF6.085591247110061
aF6.10061854555323
aF6.105796599707018
aF6.10061854555323
aF6.085591247110061
aF6.062185681050476
aF6.032692947256552
aF6.000000000000001
aF5.967307052743448
aF5.937814318949525
aF5.914408752889939
aF5.89938145444677
aF5.894203400292982
aF5.89938145444677
aF5.914408752889939
aF5.937814318949524
aF5.967307052743448
aF6.0
aF6.032692947256552
aF6.062185681050476
aF6.085591247110061
aF6.10061854555323
aF6.105796599707018
aF6.10061854555323
aF6.085591247110061
aF6.062185681050476
aF6.032692947256552
aF6.0
aF5.967307052743448
aF5.937814318949525
aF5.914408752889939
aF5.899381454446771
aF5.894203400292982
aF5.89938145444677
aF5.914408752889939
aF5.937814318949525
aF5.967307052743448
aF9.0
aF9.032692947256551
aF9.062185681050474
aF9.085591247110061
aF9.10061854555323
aF9.105796599707018
aF9.10061854555323
aF9.085591247110061
aF9.062185681050476
aF9.032692947256553
aF9.0
aF8.967307052743449
aF8.937814318949524
aF8.914408752889939
aF8.89938145444677
aF8.894203400292982
aF8.89938145444677
aF8.914408752889939
aF8.937814318949524
aF8.967307052743447
aF9.0
aF9.032692947256551
aF9.062185681050476
aF9.085591247110061
aF9.10061854555323
aF9.105796599707018
aF9.10061854555323
aF9.085591247110061
aF9.062185681050476
aF9.032692947256553
aF9.0
aF8.967307052743447
aF8.937814318949524
aF8.914408752889939
aF8.89938145444677
aF8.894203400292982
aF8.89938145444677
aF8.914408752889939
aF8.937814318949524
aF8.967307052743449
atp21
tp22
Rp23
s(I3
I21
tp24
g2
(g3
g4
(F8.949871680982113
(lp25
F5.0
aF5.095349728905767
aF5.154279102187619
aF5.154279102187619
aF5.095349728905767
aF5.0
aF4.904650271094233
aF4.845720897812381
aF4.845720897812381
aF4.904650271094233
aF5.0
aF5.095349728905767
aF5.154279102187619
aF5.154279102187619
aF5.095349728905767
aF5.0
aF4.904650271094233
aF4.845720897812381
aF4.845720897812381
aF4.904650271094233
aF5.0
aF5.095349728905767
aF5.154279102187619
aF5.154279102187619
aF5.095349728905767
aF5.0
aF4.904650271094233
aF4.845720897812381
aF4.845720897812381
aF4.904650271094233
aF5.0
aF5.0953497289057665
aF5.154279102187619
aF5.154279102187619
aF5.095349728905767
aF5.0
aF4.9046502710942335
aF4.845720897812381
aF4.845720897812381
aF4.904650271094233
aF5.0
aF5.0953497289057665
aF5.154279102187619
aF5.154279102187619
aF5.095349728905767
aF5.0
aF4.9046502710942335
aF4.845720897812381
aF4.845720897812381
aF4.904650271094233
aF5.0
aF5.0953497289057665
aF5.154279102187619
aF5.154279102187619
aF5.095349728905767
aF5.000000000000001
aF4.9046502710942335
aF4.84572089781238
aF4.845720897812381
aF4.904650271094233
aF7.0
aF6.926354274954792
aF6.868762357012274
aF6.839778532802874
aF6.845720897812381
aF6.885294094006941
aF6.949871680982112
aF7.025376587409993
aF7.0953497289057665
aF7.144537873659268
aF7.162218647939677
aF7.144537873659269
aF7.095349728905767
aF7.025376587409993
aF6.949871680982113
aF6.885294094006941
aF6.84572089781238
aF6.839778532802873
aF6.868762357012274
aF6.926354274954791
aF7.0
aF7.073645725045208
aF7.131237642987725
aF7.160221467197126
aF7.15427910218762
aF7.114705905993059
aF7.050128319017887
aF6.974623412590008
aF6.9046502710942335
aF6.855462126340732
aF6.837781352060323
aF6.855462126340732
aF6.9046502710942335
aF6.974623412590007
aF7.050128319017887
aF7.114705905993058
aF7.154279102187619
aF7.160221467197126
aF7.131237642987726
aF7.073645725045208
aF6.0
aF6.050128319017887
aF6.0953497289057665
aF6.131237642987725
aF6.154279102187619
aF6.162218647939677
aF6.154279102187619
aF6.131237642987726
aF6.095349728905767
aF6.050128319017887
aF6.000000000000001
aF5.949871680982113
aF5.9046502710942335
aF5.868762357012274
aF5.84572089781238
aF5.837781352060323
aF5.845720897812381
aF5.868762357012274
aF5.904650271094233
aF5.949871680982112
aF6.0
aF6.050128319017887
aF6.095349728905767
aF6.131237642987725
aF6.154279102187619
aF6.162218647939677
aF6.15427910218762
aF6.131237642987726
aF6.095349728905767
aF6.050128319017887
aF6.0
aF5.949871680982113
aF5.9046502710942335
aF5.868762357012274
aF5.845720897812381
aF5.837781352060323
aF5.845720897812381
aF5.868762357012274
aF5.9046502710942335
aF5.949871680982112
aF6.0
aF6.050128319017887
aF6.0953497289057665
aF6.131237642987725
aF6.154279102187619
aF6.162218647939677
aF6.154279102187619
aF6.131237642987726
aF6.095349728905767
aF6.050128319017887
aF6.000000000000001
aF5.949871680982114
aF5.9046502710942335
aF5.868762357012274
aF5.845720897812381
aF5.837781352060323
aF5.84572089781238
aF5.868762357012274
aF5.904650271094233
aF5.949871680982112
aF6.0
aF6.050128319017887
aF6.095349728905767
aF6.131237642987725
aF6.154279102187619
aF6.162218647939677
aF6.15427910218762
aF6.131237642987726
aF6.095349728905767
aF6.050128319017887
aF6.0
aF5.949871680982114
aF5.9046502710942335
aF5.868762357012274
aF5.845720897812381
aF5.837781352060323
aF5.84572089781238
aF5.868762357012274
aF5.9046502710942335
aF5.949871680982112
aF9.0
aF9.050128319017887
aF9.095349728905767
aF9.131237642987726
aF9.154279102187619
aF9.162218647939678
aF9.154279102187619
aF9.131237642987726
aF9.095349728905767
aF9.050128319017887
aF9.000000000000002
aF8.949871680982113
aF8.904650271094233
aF8.868762357012274
aF8.845720897812381
aF8.837781352060322
aF8.845720897812381
aF8.868762357012274
aF8.904650271094232
aF8.949871680982113
aF9.0
aF9.050128319017887
aF9.095349728905767
aF9.131237642987726
aF9.154279102187619
aF9.162218647939678
aF9.154279102187619
aF9.131237642987726
aF9.095349728905767
aF9.050128319017887
aF9.0
aF8.949871680982113
aF8.904650271094232
aF8.868762357012276
aF8.845720897812381
aF8.837781352060322
aF8.845720897812381
aF8.868762357012274
aF8.904650271094233
aF8.949871680982113
atp26
tp27
Rp28
s(I8
I9
tp29
g2
(g3
g4
(F8.96906013162126
(lp30
F5.0
aF5.05885112686983
aF5.095223123551618
aF5.095223123551618
aF5.05885112686983
aF5.0
aF4.94114887313017
aF4.904776876448382
aF4.904776876448382
aF4.94114887313017
aF5.0
aF5.05885112686983
aF5.095223123551618
aF5.095223123551618
aF5.05885112686983
aF5.0
aF4.94114887313017
aF4.904776876448382
aF4.904776876448382
aF4.94114887313017
aF5.0
aF5.05885112686983
aF5.095223123551618
aF5.095223123551618
aF5.05885112686983
aF5.0
aF4.94114887313017
aF4.904776876448382
aF4.904776876448382
aF4.94114887313017
aF5.0
aF5.05885112686983
aF5.095223123551618
aF5.095223123551618
aF5.05885112686983
aF5.0
aF4.94114887313017
aF4.904776876448382
aF4.904776876448382
aF4.94114887313017
aF5.0
aF5.05885112686983
aF5.095223123551618
aF5.095223123551618
aF5.05885112686983
aF5.0
aF4.94114887313017
aF4.904776876448382
aF4.904776876448382
aF4.94114887313017
aF5.0
aF5.05885112686983
aF5.095223123551618
aF5.095223123551618
aF5.05885112686983
aF5.000000000000001
aF4.94114887313017
aF4.904776876448382
aF4.904776876448382
aF4.941148873130169
aF7.0
aF6.954544874350513
aF6.91899837297701
aF6.901109169354774
aF6.904776876448382
aF6.929201981969054
aF6.9690601316212595
aF7.015662768864972
aF7.05885112686983
aF7.089210707128739
aF7.100123517288499
aF7.08921070712874
aF7.05885112686983
aF7.015662768864972
aF6.96906013162126
aF6.929201981969054
aF6.904776876448382
aF6.901109169354774
aF6.91899837297701
aF6.954544874350513
aF7.0
aF7.045455125649487
aF7.08100162702299
aF7.098890830645226
aF7.095223123551618
aF7.070798018030946
aF7.03093986837874
aF6.984337231135028
aF6.94114887313017
aF6.91078929287126
aF6.899876482711501
aF6.91078929287126
aF6.94114887313017
aF6.984337231135027
aF7.0309398683787405
aF7.0707980180309455
aF7.095223123551618
aF7.098890830645226
aF7.08100162702299
aF7.045455125649487
aF6.0
aF6.0309398683787405
aF6.05885112686983
aF6.08100162702299
aF6.095223123551618
aF6.100123517288499
aF6.095223123551618
aF6.08100162702299
aF6.05885112686983
aF6.03093986837874
aF6.000000000000001
aF5.96906013162126
aF5.94114887313017
aF5.91899837297701
aF5.904776876448382
aF5.899876482711501
aF5.904776876448382
aF5.91899837297701
aF5.941148873130169
aF5.9690601316212595
aF6.0
aF6.0309398683787405
aF6.058851126869831
aF6.08100162702299
aF6.095223123551618
aF6.100123517288499
aF6.095223123551618
aF6.08100162702299
aF6.05885112686983
aF6.03093986837874
aF6.0
aF5.96906013162126
aF5.94114887313017
aF5.91899837297701
aF5.904776876448382
aF5.899876482711501
aF5.904776876448382
aF5.91899837297701
aF5.94114887313017
aF5.9690601316212595
aF6.0
aF6.0309398683787405
aF6.05885112686983
aF6.08100162702299
aF6.095223123551618
aF6.100123517288499
aF6.095223123551618
aF6.08100162702299
aF6.05885112686983
aF6.0309398683787405
aF6.000000000000001
aF5.96906013162126
aF5.94114887313017
aF5.91899837297701
aF5.904776876448382
aF5.899876482711501
aF5.904776876448382
aF5.91899837297701
aF5.941148873130169
aF5.9690601316212595
aF6.0
aF6.03093986837874
aF6.05885112686983
aF6.08100162702299
aF6.095223123551618
aF6.100123517288499
aF6.095223123551618
aF6.08100162702299
aF6.058851126869831
aF6.0309398683787405
aF6.0
aF5.96906013162126
aF5.94114887313017
aF5.91899837297701
aF5.904776876448382
aF5.899876482711501
aF5.904776876448382
aF5.91899837297701
aF5.94114887313017
aF5.9690601316212595
aF9.0
aF9.03093986837874
aF9.058851126869829
aF9.081001627022989
aF9.095223123551618
aF9.100123517288498
aF9.095223123551618
aF9.08100162702299
aF9.05885112686983
aF9.03093986837874
aF9.0
aF8.96906013162126
aF8.94114887313017
aF8.918998372977011
aF8.904776876448382
aF8.899876482711502
aF8.904776876448382
aF8.91899837297701
aF8.94114887313017
aF8.96906013162126
aF9.0
aF9.03093986837874
aF9.05885112686983
aF9.081001627022989
aF9.095223123551618
aF9.100123517288498
aF9.095223123551618
aF9.08100162702299
aF9.05885112686983
aF9.03093986837874
aF9.0
aF8.96906013162126
aF8.94114887313017
aF8.918998372977011
aF8.904776876448382
aF8.899876482711502
aF8.904776876448382
aF8.91899837297701
aF8.94114887313017
aF8.96906013162126
atp31
tp32
Rp33
s(I13
I17
tp34
g2
(g3
g4
(F8.967123072763417
(lp35
F5.0
aF5.062535631768229
aF5.101184777708942
aF5.101184777708942
aF5.062535631768229
aF5.0
aF4.937464368231771
aF4.898815222291058
aF4.898815222291058
aF4.937464368231771
aF5.0
aF5.062535631768229
aF5.101184777708942
aF5.101184777708942
aF5.062535631768229
aF5.0
aF4.937464368231771
aF4.898815222291058
aF4.8988152222910575
aF4.937464368231771
aF5.0
aF5.062535631768229
aF5.101184777708942
aF5.1011847777089425
aF5.062535631768229
aF5.0
aF4.937464368231771
aF4.898815222291058
aF4.8988152222910575
aF4.937464368231771
aF5.0
aF5.062535631768228
aF5.101184777708942
aF5.1011847777089425
aF5.062535631768229
aF5.0
aF4.937464368231772
aF4.898815222291058
aF4.8988152222910575
aF4.937464368231771
aF5.0
aF5.062535631768228
aF5.101184777708942
aF5.1011847777089425
aF5.062535631768229
aF5.0
aF4.937464368231772
aF4.898815222291058
aF4.8988152222910575
aF4.937464368231771
aF5.0
aF5.062535631768228
aF5.101184777708942
aF5.101184777708942
aF5.062535631768229
aF5.000000000000001
aF4.937464368231772
aF4.8988152222910575
aF4.8988152222910575
aF4.937464368231771
aF7.0
aF6.9516990557227185
aF6.913927087048967
aF6.894917890286745
aF6.8988152222910575
aF6.92476951553882
aF6.967123072763416
aF7.016643371135055
aF7.062535631768228
aF7.094795940664411
aF7.106391971428899
aF7.094795940664412
aF7.062535631768229
aF7.016643371135055
aF6.967123072763417
aF6.92476951553882
aF6.8988152222910575
aF6.894917890286745
aF6.913927087048967
aF6.9516990557227185
aF7.0
aF7.0483009442772815
aF7.086072912951033
aF7.105082109713255
aF7.1011847777089425
aF7.07523048446118
aF7.032876927236583
aF6.983356628864946
aF6.937464368231772
aF6.905204059335588
aF6.893608028571101
aF6.905204059335588
aF6.937464368231772
aF6.983356628864945
aF7.032876927236583
aF7.075230484461179
aF7.101184777708942
aF7.105082109713255
aF7.086072912951034
aF7.0483009442772815
aF6.0
aF6.032876927236583
aF6.062535631768228
aF6.086072912951033
aF6.101184777708942
aF6.106391971428899
aF6.101184777708942
aF6.086072912951034
aF6.062535631768229
aF6.032876927236583
aF6.000000000000001
aF5.967123072763417
aF5.937464368231772
aF5.913927087048967
aF5.8988152222910575
aF5.893608028571101
aF5.8988152222910575
aF5.913927087048967
aF5.937464368231771
aF5.967123072763416
aF6.0
aF6.032876927236583
aF6.062535631768229
aF6.086072912951033
aF6.101184777708942
aF6.106391971428899
aF6.1011847777089425
aF6.086072912951034
aF6.062535631768229
aF6.032876927236583
aF6.0
aF5.967123072763417
aF5.937464368231772
aF5.913927087048967
aF5.898815222291058
aF5.893608028571101
aF5.8988152222910575
aF5.913927087048967
aF5.937464368231772
aF5.967123072763416
aF6.0
aF6.032876927236583
aF6.062535631768228
aF6.086072912951033
aF6.101184777708942
aF6.106391971428899
aF6.101184777708942
aF6.086072912951034
aF6.062535631768229
aF6.032876927236583
aF6.000000000000001
aF5.967123072763417
aF5.937464368231772
aF5.913927087048967
aF5.8988152222910575
aF5.893608028571101
aF5.8988152222910575
aF5.913927087048967
aF5.937464368231771
aF5.967123072763416
aF6.0
aF6.032876927236583
aF6.062535631768229
aF6.086072912951033
aF6.101184777708942
aF6.106391971428899
aF6.1011847777089425
aF6.086072912951034
aF6.062535631768229
aF6.032876927236583
aF6.0
aF5.967123072763417
aF5.937464368231772
aF5.913927087048967
aF5.898815222291058
aF5.893608028571101
aF5.8988152222910575
aF5.913927087048967
aF5.937464368231772
aF5.967123072763416
aF9.0
aF9.032876927236584
aF9.062535631768228
aF9.086072912951034
aF9.101184777708943
aF9.106391971428899
aF9.101184777708943
aF9.086072912951034
aF9.06253563176823
aF9.032876927236584
aF9.0
aF8.967123072763417
aF8.93746436823177
aF8.913927087048966
aF8.898815222291057
aF8.893608028571101
aF8.898815222291057
aF8.913927087048966
aF8.93746436823177
aF8.967123072763416
aF9.0
aF9.032876927236584
aF9.06253563176823
aF9.086072912951034
aF9.101184777708943
aF9.106391971428899
aF9.101184777708943
aF9.086072912951034
aF9.06253563176823
aF9.032876927236584
aF9.0
aF8.967123072763416
aF8.93746436823177
aF8.913927087048968
aF8.898815222291057
aF8.893608028571101
aF8.898815222291057
aF8.913927087048966
aF8.93746436823177
aF8.967123072763417
atp36
tp37
Rp38
s(I2
I12
tp39
g2
(g3
g4
(F8.966118793346373
(lp40
F5.0
aF5.06444588473575
aF5.104275631937501
aF5.104275631937501
aF5.06444588473575
aF5.0
aF4.93555411526425
aF4.895724368062499
aF4.895724368062499
aF4.93555411526425
aF5.0
aF5.06444588473575
aF5.104275631937501
aF5.104275631937501
aF5.06444588473575
aF5.0
aF4.93555411526425
aF4.895724368062499
aF4.895724368062499
aF4.93555411526425
aF5.0
aF5.06444588473575
aF5.104275631937501
aF5.104275631937501
aF5.06444588473575
aF5.0
aF4.93555411526425
aF4.895724368062499
aF4.895724368062499
aF4.93555411526425
aF5.0
aF5.06444588473575
aF5.104275631937501
aF5.104275631937501
aF5.06444588473575
aF5.0
aF4.93555411526425
aF4.895724368062499
aF4.895724368062499
aF4.93555411526425
aF5.0
aF5.06444588473575
aF5.104275631937501
aF5.104275631937501
aF5.06444588473575
aF5.0
aF4.93555411526425
aF4.895724368062499
aF4.895724368062499
aF4.93555411526425
aF5.0
aF5.064445884735749
aF5.104275631937501
aF5.104275631937501
aF5.06444588473575
aF5.000000000000001
aF4.93555411526425
aF4.895724368062499
aF4.895724368062499
aF4.93555411526425
aF7.0
aF6.950223624524043
aF6.911297849400945
aF6.891707985689363
aF6.895724368062499
aF6.922471477570281
aF6.966118793346372
aF7.017151770078207
aF7.064445884735749
aF7.097691637435082
aF7.109641887890855
aF7.097691637435082
aF7.06444588473575
aF7.017151770078207
aF6.966118793346373
aF6.922471477570281
aF6.895724368062499
aF6.891707985689363
aF6.911297849400945
aF6.9502236245240425
aF7.0
aF7.049776375475957
aF7.088702150599055
aF7.108292014310637
aF7.104275631937501
aF7.077528522429719
aF7.033881206653627
aF6.982848229921793
aF6.93555411526425
aF6.902308362564918
aF6.890358112109145
aF6.902308362564918
aF6.93555411526425
aF6.982848229921792
aF7.033881206653627
aF7.077528522429719
aF7.104275631937501
aF7.108292014310637
aF7.088702150599055
aF7.049776375475957
aF6.0
aF6.033881206653627
aF6.064445884735749
aF6.088702150599055
aF6.104275631937501
aF6.109641887890855
aF6.104275631937501
aF6.088702150599055
aF6.06444588473575
aF6.033881206653627
aF6.000000000000001
aF5.966118793346373
aF5.93555411526425
aF5.911297849400945
aF5.895724368062499
aF5.890358112109145
aF5.895724368062499
aF5.911297849400945
aF5.93555411526425
aF5.966118793346372
aF6.0
aF6.033881206653627
aF6.06444588473575
aF6.088702150599055
aF6.104275631937501
aF6.109641887890855
aF6.104275631937501
aF6.088702150599055
aF6.06444588473575
aF6.033881206653627
aF6.0
aF5.966118793346373
aF5.93555411526425
aF5.911297849400945
aF5.895724368062499
aF5.890358112109145
aF5.895724368062499
aF5.911297849400945
aF5.93555411526425
aF5.966118793346372
aF6.0
aF6.033881206653627
aF6.064445884735749
aF6.088702150599055
aF6.104275631937501
aF6.109641887890855
aF6.104275631937501
aF6.088702150599055
aF6.06444588473575
aF6.033881206653627
aF6.000000000000001
aF5.966118793346373
aF5.93555411526425
aF5.911297849400945
aF5.895724368062499
aF5.890358112109145
aF5.895724368062499
aF5.911297849400945
aF5.93555411526425
aF5.966118793346372
aF6.0
aF6.033881206653627
aF6.06444588473575
aF6.088702150599055
aF6.104275631937501
aF6.109641887890855
aF6.104275631937501
aF6.088702150599055
aF6.06444588473575
aF6.033881206653627
aF6.0
aF5.966118793346373
aF5.93555411526425
aF5.911297849400945
aF5.895724368062499
aF5.890358112109145
aF5.895724368062499
aF5.911297849400945
aF5.93555411526425
aF5.966118793346372
aF9.0
aF9.033881206653627
aF9.064445884735749
aF9.088702150599055
aF9.104275631937501
aF9.109641887890856
aF9.104275631937501
aF9.088702150599055
aF9.06444588473575
aF9.033881206653627
aF9.0
aF8.966118793346373
aF8.935554115264251
aF8.911297849400945
aF8.895724368062499
aF8.890358112109144
aF8.895724368062499
aF8.911297849400945
aF8.93555411526425
aF8.966118793346373
aF9.0
aF9.033881206653627
aF9.064445884735749
aF9.088702150599055
aF9.104275631937501
aF9.109641887890856
aF9.104275631937501
aF9.088702150599055
aF9.06444588473575
aF9.033881206653627
aF9.0
aF8.966118793346373
aF8.93555411526425
aF8.911297849400945
aF8.895724368062499
aF8.890358112109144
aF8.895724368062499
aF8.911297849400945
aF8.935554115264251
aF8.966118793346373
atp41
tp42
Rp43
s(I5
I8
tp44
g2
(g3
g4
(F8.941032227176926
(lp45
F5.0
aF5.112163369189593
aF5.181484143641465
aF5.181484143641465
aF5.112163369189593
aF5.0
aF4.887836630810407
aF4.818515856358535
aF4.818515856358535
aF4.887836630810407
aF5.0
aF5.112163369189593
aF5.181484143641465
aF5.181484143641465
aF5.112163369189593
aF5.0
aF4.887836630810407
aF4.818515856358535
aF4.818515856358535
aF4.887836630810407
aF5.0
aF5.112163369189593
aF5.181484143641465
aF5.181484143641465
aF5.112163369189593
aF5.0
aF4.887836630810407
aF4.818515856358535
aF4.818515856358535
aF4.887836630810407
aF5.0
aF5.112163369189593
aF5.181484143641465
aF5.181484143641465
aF5.112163369189593
aF5.0
aF4.887836630810407
aF4.818515856358535
aF4.818515856358535
aF4.887836630810407
aF5.0
aF5.112163369189593
aF5.181484143641465
aF5.181484143641465
aF5.112163369189593
aF5.0
aF4.887836630810407
aF4.818515856358535
aF4.818515856358535
aF4.887836630810407
aF5.0
aF5.1121633691895925
aF5.181484143641465
aF5.181484143641465
aF5.112163369189593
aF5.000000000000001
aF4.887836630810407
aF4.818515856358535
aF4.818515856358535
aF4.887836630810406
aF7.0
aF6.913367843387951
aF6.84562036650831
aF6.81152563532624
aF6.818515856358535
aF6.865067252631191
aF6.941032227176925
aF7.029851406764376
aF7.1121633691895925
aF7.170025180681376
aF7.190823721337232
aF7.170025180681377
aF7.112163369189593
aF7.029851406764376
aF6.941032227176927
aF6.865067252631191
aF6.818515856358535
aF6.81152563532624
aF6.84562036650831
aF6.91336784338795
aF7.0
aF7.08663215661205
aF7.15437963349169
aF7.18847436467376
aF7.181484143641465
aF7.134932747368809
aF7.058967772823074
aF6.970148593235625
aF6.887836630810407
aF6.829974819318624
aF6.809176278662768
aF6.829974819318624
aF6.887836630810407
aF6.970148593235623
aF7.058967772823074
aF7.134932747368808
aF7.181484143641465
aF7.188474364673759
aF7.15437963349169
aF7.08663215661205
aF6.0
aF6.058967772823074
aF6.1121633691895925
aF6.15437963349169
aF6.181484143641465
aF6.190823721337232
aF6.181484143641465
aF6.15437963349169
aF6.112163369189593
aF6.058967772823074
aF6.000000000000001
aF5.941032227176927
aF5.887836630810407
aF5.84562036650831
aF5.818515856358535
aF5.809176278662768
aF5.818515856358535
aF5.84562036650831
aF5.887836630810406
aF5.941032227176925
aF6.0
aF6.058967772823074
aF6.112163369189593
aF6.15437963349169
aF6.181484143641465
aF6.190823721337232
aF6.181484143641465
aF6.15437963349169
aF6.112163369189593
aF6.058967772823074
aF6.0
aF5.941032227176927
aF5.887836630810407
aF5.84562036650831
aF5.818515856358536
aF5.809176278662768
aF5.818515856358535
aF5.84562036650831
aF5.887836630810407
aF5.941032227176925
aF6.0
aF6.058967772823074
aF6.1121633691895925
aF6.15437963349169
aF6.181484143641465
aF6.190823721337232
aF6.181484143641465
aF6.15437963349169
aF6.112163369189593
aF6.058967772823074
aF6.000000000000001
aF5.941032227176927
aF5.887836630810407
aF5.84562036650831
aF5.818515856358535
aF5.809176278662768
aF5.818515856358535
aF5.84562036650831
aF5.887836630810406
aF5.941032227176925
aF6.0
aF6.058967772823074
aF6.112163369189593
aF6.15437963349169
aF6.181484143641465
aF6.190823721337232
aF6.181484143641465
aF6.15437963349169
aF6.112163369189593
aF6.058967772823074
aF6.0
aF5.941032227176927
aF5.887836630810407
aF5.84562036650831
aF5.818515856358536
aF5.809176278662768
aF5.818515856358535
aF5.84562036650831
aF5.887836630810407
aF5.941032227176925
aF9.0
aF9.058967772823074
aF9.112163369189593
aF9.15437963349169
aF9.181484143641464
aF9.190823721337232
aF9.181484143641464
aF9.15437963349169
aF9.112163369189593
aF9.058967772823074
aF9.000000000000002
aF8.941032227176926
aF8.887836630810407
aF8.84562036650831
aF8.818515856358536
aF8.809176278662768
aF8.818515856358536
aF8.84562036650831
aF8.887836630810405
aF8.941032227176926
aF9.0
aF9.058967772823074
aF9.112163369189593
aF9.15437963349169
aF9.181484143641464
aF9.190823721337232
aF9.181484143641466
aF9.15437963349169
aF9.112163369189593
aF9.058967772823074
aF9.0
aF8.941032227176926
aF8.887836630810407
aF8.84562036650831
aF8.818515856358536
aF8.809176278662768
aF8.818515856358536
aF8.84562036650831
aF8.887836630810407
aF8.941032227176926
atp46
tp47
Rp48
s(I11
I10
tp49
g2
(g3
g4
(F8.944517533457468
(lp50
F5.0
aF5.105533922690808
aF5.1707574738798305
aF5.1707574738798305
aF5.105533922690808
aF5.0
aF4.894466077309192
aF4.8292425261201695
aF4.8292425261201695
aF4.894466077309192
aF5.0
aF5.105533922690808
aF5.1707574738798305
aF5.1707574738798305
aF5.105533922690808
aF5.0
aF4.894466077309192
aF4.8292425261201695
aF4.8292425261201695
aF4.894466077309192
aF5.0
aF5.105533922690808
aF5.1707574738798305
aF5.1707574738798305
aF5.105533922690808
aF5.0
aF4.894466077309192
aF4.8292425261201695
aF4.8292425261201695
aF4.894466077309192
aF5.0
aF5.105533922690808
aF5.1707574738798305
aF5.1707574738798305
aF5.105533922690808
aF5.0
aF4.894466077309192
aF4.8292425261201695
aF4.8292425261201695
aF4.894466077309192
aF5.0
aF5.105533922690808
aF5.1707574738798305
aF5.1707574738798305
aF5.105533922690808
aF5.0
aF4.894466077309192
aF4.8292425261201695
aF4.8292425261201695
aF4.894466077309192
aF5.0
aF5.105533922690807
aF5.1707574738798305
aF5.1707574738798305
aF5.105533922690808
aF5.000000000000001
aF4.894466077309192
aF4.8292425261201695
aF4.8292425261201695
aF4.8944660773091915
aF7.0
aF6.918488260610468
aF6.85474501681197
aF6.822665464006719
aF6.8292425261201695
aF6.8730424894315725
aF6.944517533457466
aF7.0280870312335075
aF7.105533922690807
aF7.159975796047894
aF7.179545033290995
aF7.1599757960478945
aF7.105533922690808
aF7.028087031233507
aF6.944517533457468
aF6.873042489431573
aF6.8292425261201695
aF6.822665464006718
aF6.85474501681197
aF6.918488260610467
aF7.0
aF7.081511739389533
aF7.14525498318803
aF7.177334535993281
aF7.170757473879831
aF7.1269575105684275
aF7.055482466542533
aF6.971912968766493
aF6.894466077309192
aF6.8400242039521055
aF6.820454966709005
aF6.8400242039521055
aF6.894466077309192
aF6.9719129687664925
aF7.055482466542533
aF7.126957510568427
aF7.1707574738798305
aF7.177334535993281
aF7.145254983188031
aF7.081511739389533
aF6.0
aF6.055482466542533
aF6.105533922690807
aF6.14525498318803
aF6.1707574738798305
aF6.179545033290995
aF6.1707574738798305
aF6.145254983188031
aF6.105533922690808
aF6.055482466542533
aF6.000000000000001
aF5.944517533457468
aF5.894466077309192
aF5.85474501681197
aF5.8292425261201695
aF5.820454966709005
aF5.8292425261201695
aF5.85474501681197
aF5.8944660773091915
aF5.944517533457466
aF6.0
aF6.055482466542533
aF6.1055339226908085
aF6.14525498318803
aF6.1707574738798305
aF6.179545033290995
aF6.170757473879831
aF6.145254983188031
aF6.105533922690808
aF6.055482466542533
aF6.0
aF5.944517533457468
aF5.894466077309192
aF5.85474501681197
aF5.8292425261201695
aF5.820454966709005
aF5.8292425261201695
aF5.85474501681197
aF5.894466077309192
aF5.944517533457466
aF6.0
aF6.055482466542533
aF6.105533922690807
aF6.14525498318803
aF6.1707574738798305
aF6.179545033290995
aF6.1707574738798305
aF6.145254983188031
aF6.1055339226908085
aF6.055482466542533
aF6.000000000000001
aF5.944517533457468
aF5.894466077309192
aF5.85474501681197
aF5.8292425261201695
aF5.820454966709005
aF5.8292425261201695
aF5.85474501681197
aF5.8944660773091915
aF5.944517533457466
aF6.0
aF6.055482466542533
aF6.105533922690808
aF6.14525498318803
aF6.1707574738798305
aF6.179545033290995
aF6.170757473879831
aF6.145254983188031
aF6.1055339226908085
aF6.055482466542533
aF6.0
aF5.944517533457468
aF5.894466077309192
aF5.85474501681197
aF5.8292425261201695
aF5.820454966709005
aF5.8292425261201695
aF5.85474501681197
aF5.894466077309192
aF5.944517533457466
aF9.0
aF9.055482466542532
aF9.105533922690807
aF9.14525498318803
aF9.170757473879831
aF9.179545033290994
aF9.170757473879831
aF9.14525498318803
aF9.105533922690809
aF9.055482466542534
aF9.000000000000002
aF8.944517533457468
aF8.894466077309193
aF8.85474501681197
aF8.829242526120169
aF8.820454966709006
aF8.829242526120169
aF8.85474501681197
aF8.894466077309191
aF8.944517533457466
aF9.0
aF9.055482466542532
aF9.105533922690809
aF9.14525498318803
aF9.17075747387983
aF9.179545033290994
aF9.170757473879831
aF9.14525498318803
aF9.105533922690809
aF9.055482466542534
aF9.0
aF8.944517533457466
aF8.894466077309191
aF8.85474501681197
aF8.82924252612017
aF8.820454966709006
aF8.829242526120169
aF8.85474501681197
aF8.894466077309191
aF8.944517533457468
atp51
tp52
Rp53
s(I6
I7
tp54
g2
(g3
g4
(F8.96415898802439
(lp55
F5.0
aF5.068173655980032
aF5.110307292513035
aF5.110307292513035
aF5.068173655980032
aF5.0
aF4.931826344019968
aF4.889692707486965
aF4.889692707486965
aF4.931826344019968
aF5.0
aF5.068173655980032
aF5.110307292513035
aF5.110307292513035
aF5.068173655980032
aF5.0
aF4.931826344019968
aF4.889692707486965
aF4.889692707486965
aF4.931826344019968
aF5.0
aF5.068173655980032
aF5.110307292513035
aF5.110307292513035
aF5.068173655980032
aF5.0
aF4.931826344019968
aF4.889692707486965
aF4.889692707486965
aF4.931826344019968
aF5.0
aF5.068173655980032
aF5.110307292513035
aF5.110307292513035
aF5.068173655980032
aF5.0
aF4.931826344019968
aF4.889692707486965
aF4.889692707486965
aF4.931826344019968
aF5.0
aF5.068173655980032
aF5.110307292513035
aF5.110307292513035
aF5.068173655980032
aF5.0
aF4.931826344019968
aF4.889692707486965
aF4.889692707486965
aF4.931826344019968
aF5.0
aF5.068173655980032
aF5.110307292513035
aF5.110307292513035
aF5.068173655980032
aF5.000000000000001
aF4.931826344019968
aF4.889692707486965
aF4.889692707486965
aF4.931826344019967
aF7.0
aF6.947344388062247
aF6.906167012456662
aF6.885444003767353
aF6.889692707486965
aF6.91798696164331
aF6.96415898802439
aF7.018143887349128
aF7.068173655980032
aF7.103342457162836
aF7.115983951135457
aF7.103342457162837
aF7.068173655980032
aF7.018143887349127
aF6.964158988024391
aF6.91798696164331
aF6.889692707486965
aF6.885444003767353
aF6.906167012456662
aF6.9473443880622465
aF7.0
aF7.0526556119377535
aF7.093832987543338
aF7.114555996232647
aF7.110307292513035
aF7.082013038356691
aF7.035841011975609
aF6.981856112650873
aF6.931826344019968
aF6.896657542837163
aF6.884016048864543
aF6.896657542837163
aF6.931826344019968
aF6.981856112650872
aF7.035841011975609
aF7.08201303835669
aF7.110307292513035
aF7.114555996232647
aF7.093832987543338
aF7.0526556119377535
aF6.0
aF6.035841011975609
aF6.068173655980032
aF6.093832987543338
aF6.110307292513035
aF6.115983951135457
aF6.110307292513035
aF6.093832987543338
aF6.068173655980032
aF6.035841011975609
aF6.000000000000001
aF5.964158988024391
aF5.931826344019968
aF5.906167012456662
aF5.889692707486965
aF5.884016048864543
aF5.889692707486965
aF5.906167012456662
aF5.931826344019967
aF5.96415898802439
aF6.0
aF6.035841011975609
aF6.068173655980033
aF6.093832987543338
aF6.110307292513035
aF6.115983951135457
aF6.110307292513035
aF6.093832987543338
aF6.068173655980032
aF6.035841011975609
aF6.0
aF5.964158988024391
aF5.931826344019968
aF5.906167012456662
aF5.889692707486966
aF5.884016048864543
aF5.889692707486965
aF5.906167012456662
aF5.931826344019968
aF5.96415898802439
aF6.0
aF6.035841011975609
aF6.068173655980032
aF6.093832987543338
aF6.110307292513035
aF6.115983951135457
aF6.110307292513035
aF6.093832987543338
aF6.068173655980032
aF6.035841011975609
aF6.000000000000001
aF5.964158988024391
aF5.931826344019968
aF5.906167012456662
aF5.889692707486965
aF5.884016048864543
aF5.889692707486965
aF5.906167012456662
aF5.931826344019967
aF5.96415898802439
aF6.0
aF6.035841011975609
aF6.068173655980032
aF6.093832987543338
aF6.110307292513035
aF6.115983951135457
aF6.110307292513035
aF6.093832987543338
aF6.068173655980033
aF6.035841011975609
aF6.0
aF5.964158988024391
aF5.931826344019968
aF5.906167012456662
aF5.889692707486966
aF5.884016048864543
aF5.889692707486965
aF5.906167012456662
aF5.931826344019968
aF5.96415898802439
aF9.0
aF9.03584101197561
aF9.068173655980031
aF9.093832987543337
aF9.110307292513035
aF9.115983951135457
aF9.110307292513035
aF9.093832987543339
aF9.068173655980033
aF9.03584101197561
aF9.0
aF8.96415898802439
aF8.931826344019967
aF8.906167012456661
aF8.889692707486965
aF8.884016048864543
aF8.889692707486965
aF8.906167012456661
aF8.931826344019967
aF8.96415898802439
aF9.0
aF9.03584101197561
aF9.068173655980033
aF9.093832987543337
aF9.110307292513035
aF9.115983951135457
aF9.110307292513035
aF9.093832987543339
aF9.068173655980033
aF9.03584101197561
aF9.0
aF8.96415898802439
aF8.931826344019967
aF8.906167012456663
aF8.889692707486965
aF8.884016048864543
aF8.889692707486965
aF8.906167012456661
aF8.931826344019967
aF8.96415898802439
atp56
tp57
Rp58
s(I16
I10
tp59
g2
(g3
g4
(F8.965770552894627
(lp60
F5.0
aF5.065108277437491
aF5.105347405842818
aF5.105347405842818
aF5.065108277437491
aF5.0
aF4.934891722562509
aF4.894652594157182
aF4.894652594157182
aF4.934891722562509
aF5.0
aF5.065108277437491
aF5.105347405842818
aF5.105347405842818
aF5.065108277437491
aF5.0
aF4.934891722562509
aF4.894652594157182
aF4.894652594157182
aF4.934891722562509
aF5.0
aF5.065108277437491
aF5.105347405842818
aF5.105347405842818
aF5.065108277437491
aF5.0
aF4.934891722562509
aF4.894652594157182
aF4.894652594157182
aF4.934891722562509
aF5.0
aF5.065108277437491
aF5.105347405842818
aF5.105347405842818
aF5.065108277437491
aF5.0
aF4.934891722562509
aF4.894652594157182
aF4.894652594157182
aF4.934891722562509
aF5.0
aF5.065108277437491
aF5.105347405842818
aF5.105347405842818
aF5.065108277437491
aF5.0
aF4.934891722562509
aF4.894652594157182
aF4.894652594157182
aF4.934891722562509
aF5.0
aF5.06510827743749
aF5.105347405842818
aF5.105347405842818
aF5.065108277437491
aF5.000000000000001
aF4.934891722562509
aF4.894652594157182
aF4.894652594157182
aF4.934891722562509
aF7.0
aF6.9497120091126074
aF6.9103861440620165
aF6.890594930290552
aF6.894652594157182
aF6.921674617884905
aF6.965770552894626
aF7.017328060734598
aF7.06510827743749
aF7.0986957392163434
aF7.110768817665221
aF7.098695739216344
aF7.065108277437491
aF7.017328060734598
aF6.965770552894627
aF6.921674617884906
aF6.894652594157182
aF6.890594930290552
aF6.9103861440620165
aF6.9497120091126074
aF7.0
aF7.0502879908873926
aF7.0896138559379835
aF7.109405069709448
aF7.105347405842819
aF7.078325382115095
aF7.034229447105373
aF6.982671939265403
aF6.934891722562509
aF6.901304260783656
aF6.889231182334779
aF6.901304260783656
aF6.934891722562509
aF6.982671939265402
aF7.034229447105373
aF7.078325382115094
aF7.105347405842818
aF7.109405069709448
aF7.089613855937984
aF7.0502879908873926
aF6.0
aF6.034229447105373
aF6.06510827743749
aF6.0896138559379835
aF6.105347405842818
aF6.110768817665221
aF6.105347405842818
aF6.089613855937984
aF6.065108277437491
aF6.034229447105373
aF6.000000000000001
aF5.965770552894627
aF5.934891722562509
aF5.9103861440620165
aF5.894652594157182
aF5.889231182334779
aF5.894652594157182
aF5.9103861440620165
aF5.934891722562509
aF5.965770552894626
aF6.0
aF6.034229447105373
aF6.065108277437491
aF6.0896138559379835
aF6.105347405842818
aF6.110768817665221
aF6.105347405842819
aF6.089613855937984
aF6.065108277437491
aF6.034229447105373
aF6.0
aF5.965770552894627
aF5.934891722562509
aF5.9103861440620165
aF5.894652594157182
aF5.889231182334779
aF5.894652594157182
aF5.9103861440620165
aF5.934891722562509
aF5.965770552894626
aF6.0
aF6.034229447105373
aF6.06510827743749
aF6.0896138559379835
aF6.105347405842818
aF6.110768817665221
aF6.105347405842818
aF6.089613855937984
aF6.065108277437491
aF6.034229447105373
aF6.000000000000001
aF5.965770552894627
aF5.934891722562509
aF5.9103861440620165
aF5.894652594157182
aF5.889231182334779
aF5.894652594157182
aF5.9103861440620165
aF5.934891722562509
aF5.965770552894626
aF6.0
aF6.034229447105373
aF6.065108277437491
aF6.0896138559379835
aF6.105347405842818
aF6.110768817665221
aF6.105347405842819
aF6.089613855937984
aF6.065108277437491
aF6.034229447105373
aF6.0
aF5.965770552894627
aF5.934891722562509
aF5.9103861440620165
aF5.894652594157182
aF5.889231182334779
aF5.894652594157182
aF5.9103861440620165
aF5.934891722562509
aF5.965770552894626
aF9.0
aF9.034229447105373
aF9.06510827743749
aF9.089613855937984
aF9.105347405842819
aF9.110768817665221
aF9.105347405842819
aF9.089613855937984
aF9.065108277437492
aF9.034229447105373
aF9.0
aF8.965770552894627
aF8.93489172256251
aF8.910386144062016
aF8.894652594157181
aF8.889231182334779
aF8.894652594157181
aF8.910386144062016
aF8.934891722562508
aF8.965770552894627
aF9.0
aF9.034229447105373
aF9.06510827743749
aF9.089613855937984
aF9.105347405842817
aF9.110768817665221
aF9.105347405842819
aF9.089613855937984
aF9.065108277437492
aF9.034229447105373
aF9.0
aF8.965770552894627
aF8.934891722562508
aF8.910386144062016
aF8.894652594157181
aF8.889231182334779
aF8.894652594157181
aF8.910386144062016
aF8.93489172256251
aF8.965770552894627
atp61
tp62
Rp63
s(I19
I7
tp64
g2
(g3
g4
(F8.967338998047351
(lp65
F5.0
aF5.062124917471591
aF5.100520228017317
aF5.100520228017317
aF5.062124917471591
aF5.0
aF4.937875082528409
aF4.899479771982683
aF4.899479771982683
aF4.937875082528409
aF5.0
aF5.062124917471591
aF5.100520228017317
aF5.100520228017317
aF5.062124917471591
aF5.0
aF4.937875082528409
aF4.899479771982683
aF4.899479771982683
aF4.937875082528409
aF5.0
aF5.062124917471591
aF5.100520228017317
aF5.100520228017317
aF5.062124917471592
aF5.0
aF4.937875082528409
aF4.899479771982683
aF4.899479771982683
aF4.937875082528408
aF5.0
aF5.062124917471591
aF5.100520228017317
aF5.100520228017317
aF5.062124917471592
aF5.0
aF4.937875082528409
aF4.899479771982683
aF4.899479771982683
aF4.937875082528408
aF5.0
aF5.062124917471591
aF5.100520228017317
aF5.100520228017317
aF5.062124917471592
aF5.0
aF4.937875082528409
aF4.899479771982683
aF4.899479771982683
aF4.937875082528408
aF5.0
aF5.062124917471591
aF5.100520228017317
aF5.100520228017317
aF5.062124917471592
aF5.000000000000001
aF4.937875082528409
aF4.899479771982683
aF4.899479771982683
aF4.937875082528408
aF7.0
aF6.952016281083602
aF6.914492386781338
aF6.895608036425191
aF6.899479771982683
aF6.9252636056221455
aF6.96733899804735
aF7.016534062725175
aF7.062124917471591
aF7.094173350838528
aF7.105693222532026
aF7.0941733508385285
aF7.062124917471592
aF7.016534062725175
aF6.967338998047351
aF6.9252636056221455
aF6.899479771982683
aF6.895608036425191
aF6.914492386781338
aF6.952016281083602
aF7.0
aF7.047983718916398
aF7.085507613218662
aF7.104391963574809
aF7.100520228017317
aF7.0747363943778545
aF7.032661001952649
aF6.983465937274825
aF6.937875082528409
aF6.9058266491614715
aF6.894306777467974
aF6.9058266491614715
aF6.937875082528409
aF6.983465937274824
aF7.032661001952649
aF7.074736394377854
aF7.100520228017317
aF7.104391963574809
aF7.085507613218662
aF7.047983718916398
aF6.0
aF6.032661001952649
aF6.062124917471591
aF6.085507613218662
aF6.100520228017317
aF6.105693222532026
aF6.100520228017317
aF6.085507613218662
aF6.062124917471592
aF6.032661001952649
aF6.000000000000001
aF5.967338998047351
aF5.937875082528409
aF5.914492386781338
aF5.899479771982683
aF5.894306777467974
aF5.899479771982683
aF5.914492386781338
aF5.937875082528408
aF5.96733899804735
aF6.0
aF6.032661001952649
aF6.062124917471592
aF6.085507613218662
aF6.100520228017317
aF6.105693222532026
aF6.100520228017317
aF6.085507613218662
aF6.062124917471592
aF6.032661001952649
aF6.0
aF5.967338998047351
aF5.937875082528409
aF5.914492386781338
aF5.8994797719826835
aF5.894306777467974
aF5.899479771982683
aF5.914492386781338
aF5.937875082528409
aF5.96733899804735
aF6.0
aF6.032661001952649
aF6.062124917471591
aF6.085507613218662
aF6.100520228017317
aF6.105693222532026
aF6.100520228017317
aF6.085507613218662
aF6.062124917471592
aF6.032661001952649
aF6.000000000000001
aF5.967338998047351
aF5.937875082528409
aF5.914492386781338
aF5.899479771982683
aF5.894306777467974
aF5.899479771982683
aF5.914492386781338
aF5.937875082528408
aF5.96733899804735
aF6.0
aF6.032661001952649
aF6.062124917471592
aF6.085507613218662
aF6.100520228017317
aF6.105693222532026
aF6.100520228017317
aF6.085507613218662
aF6.062124917471592
aF6.032661001952649
aF6.0
aF5.967338998047351
aF5.937875082528409
aF5.914492386781338
aF5.8994797719826835
aF5.894306777467974
aF5.899479771982683
aF5.914492386781338
aF5.937875082528409
aF5.96733899804735
aF9.0
aF9.032661001952649
aF9.062124917471591
aF9.085507613218661
aF9.100520228017317
aF9.105693222532025
aF9.100520228017317
aF9.085507613218663
aF9.062124917471591
aF9.032661001952649
aF9.0
aF8.967338998047351
aF8.937875082528409
aF8.914492386781339
aF8.899479771982683
aF8.894306777467975
aF8.899479771982683
aF8.914492386781339
aF8.937875082528407
aF8.967338998047351
aF9.0
aF9.032661001952649
aF9.062124917471591
aF9.085507613218661
aF9.100520228017317
aF9.105693222532025
aF9.100520228017317
aF9.085507613218663
aF9.062124917471591
aF9.032661001952649
aF9.0
aF8.967338998047351
aF8.937875082528409
aF8.914492386781339
aF8.899479771982683
aF8.894306777467975
aF8.899479771982683
aF8.914492386781339
aF8.937875082528409
aF8.967338998047351
atp66
tp67
Rp68
s(I1
I16
tp69
g2
(g3
g4
(F8.95402069217643
(lp70
F5.0
aF5.0874578406406945
aF5.141509758739315
aF5.141509758739315
aF5.0874578406406945
aF5.0
aF4.9125421593593055
aF4.858490241260685
aF4.858490241260685
aF4.9125421593593055
aF5.0
aF5.0874578406406945
aF5.141509758739315
aF5.141509758739315
aF5.0874578406406945
aF5.0
aF4.9125421593593055
aF4.858490241260685
aF4.858490241260685
aF4.9125421593593055
aF5.0
aF5.0874578406406945
aF5.141509758739315
aF5.141509758739315
aF5.0874578406406945
aF5.0
aF4.9125421593593055
aF4.858490241260685
aF4.858490241260685
aF4.9125421593593055
aF5.0
aF5.0874578406406945
aF5.141509758739315
aF5.141509758739315
aF5.0874578406406945
aF5.0
aF4.9125421593593055
aF4.858490241260685
aF4.858490241260685
aF4.9125421593593055
aF5.0
aF5.0874578406406945
aF5.141509758739315
aF5.141509758739315
aF5.0874578406406945
aF5.0
aF4.9125421593593055
aF4.858490241260685
aF4.858490241260685
aF4.9125421593593055
aF5.0
aF5.087457840640694
aF5.141509758739315
aF5.141509758739315
aF5.0874578406406945
aF5.000000000000001
aF4.912542159359306
aF4.858490241260685
aF4.858490241260685
aF4.9125421593593055
aF7.0
aF6.932449770347668
aF6.879624609338699
aF6.853039712790447
aF6.858490241260685
aF6.89478805066345
aF6.95402069217643
aF7.023276222839618
aF7.087457840640694
aF7.132574790364952
aF7.148792165675461
aF7.132574790364952
aF7.0874578406406945
aF7.023276222839618
aF6.954020692176431
aF6.89478805066345
aF6.858490241260685
aF6.853039712790447
aF6.879624609338699
aF6.9324497703476675
aF7.0
aF7.0675502296523325
aF7.1203753906613
aF7.146960287209553
aF7.141509758739315
aF7.105211949336551
aF7.04597930782357
aF6.976723777160383
aF6.912542159359306
aF6.867425209635048
aF6.851207834324539
aF6.867425209635048
aF6.912542159359306
aF6.976723777160381
aF7.04597930782357
aF7.10521194933655
aF7.141509758739315
aF7.146960287209553
aF7.120375390661301
aF7.067550229652332
aF6.0
aF6.04597930782357
aF6.087457840640694
aF6.1203753906613
aF6.141509758739315
aF6.148792165675461
aF6.141509758739315
aF6.120375390661301
aF6.0874578406406945
aF6.04597930782357
aF6.000000000000001
aF5.954020692176431
aF5.912542159359306
aF5.879624609338699
aF5.858490241260685
aF5.851207834324539
aF5.858490241260685
aF5.879624609338699
aF5.9125421593593055
aF5.95402069217643
aF6.0
aF6.04597930782357
aF6.0874578406406945
aF6.1203753906613
aF6.141509758739315
aF6.148792165675461
aF6.141509758739315
aF6.120375390661301
aF6.0874578406406945
aF6.04597930782357
aF6.0
aF5.954020692176431
aF5.912542159359306
aF5.879624609338699
aF5.858490241260685
aF5.851207834324539
aF5.858490241260685
aF5.879624609338699
aF5.912542159359306
aF5.95402069217643
aF6.0
aF6.04597930782357
aF6.087457840640694
aF6.1203753906613
aF6.141509758739315
aF6.148792165675461
aF6.141509758739315
aF6.120375390661301
aF6.0874578406406945
aF6.04597930782357
aF6.000000000000001
aF5.954020692176431
aF5.912542159359306
aF5.879624609338699
aF5.858490241260685
aF5.851207834324539
aF5.858490241260685
aF5.879624609338699
aF5.9125421593593055
aF5.954020692176429
aF6.0
aF6.04597930782357
aF6.0874578406406945
aF6.1203753906613
aF6.141509758739315
aF6.148792165675461
aF6.141509758739315
aF6.120375390661301
aF6.0874578406406945
aF6.04597930782357
aF6.0
aF5.954020692176431
aF5.912542159359306
aF5.879624609338699
aF5.858490241260685
aF5.851207834324539
aF5.858490241260685
aF5.879624609338699
aF5.912542159359306
aF5.954020692176429
aF9.0
aF9.04597930782357
aF9.087457840640694
aF9.1203753906613
aF9.141509758739314
aF9.148792165675461
aF9.141509758739314
aF9.120375390661302
aF9.087457840640694
aF9.04597930782357
aF9.0
aF8.95402069217643
aF8.912542159359306
aF8.8796246093387
aF8.858490241260684
aF8.851207834324539
aF8.858490241260684
aF8.8796246093387
aF8.912542159359305
aF8.95402069217643
aF9.0
aF9.04597930782357
aF9.087457840640694
aF9.1203753906613
aF9.141509758739314
aF9.148792165675461
aF9.141509758739316
aF9.120375390661302
aF9.087457840640695
aF9.04597930782357
aF9.0
aF8.95402069217643
aF8.912542159359305
aF8.8796246093387
aF8.858490241260686
aF8.851207834324539
aF8.858490241260684
aF8.8796246093387
aF8.912542159359306
aF8.95402069217643
atp71
tp72
Rp73
s(I17
I7
tp74
g2
(g3
g4
(F8.945574941843978
(lp75
F5.0
aF5.103522612418055
aF5.167503105496595
aF5.167503105496595
aF5.103522612418055
aF5.0
aF4.896477387581945
aF4.832496894503405
aF4.832496894503405
aF4.896477387581945
aF5.0
aF5.103522612418055
aF5.167503105496595
aF5.167503105496595
aF5.103522612418055
aF5.0
aF4.896477387581945
aF4.832496894503405
aF4.832496894503405
aF4.896477387581945
aF5.0
aF5.103522612418055
aF5.167503105496595
aF5.167503105496595
aF5.103522612418055
aF5.0
aF4.896477387581945
aF4.832496894503405
aF4.832496894503405
aF4.896477387581945
aF5.0
aF5.103522612418055
aF5.167503105496595
aF5.167503105496595
aF5.103522612418055
aF5.0
aF4.896477387581945
aF4.832496894503405
aF4.832496894503405
aF4.896477387581945
aF5.0
aF5.103522612418055
aF5.167503105496595
aF5.167503105496595
aF5.103522612418056
aF5.0
aF4.896477387581945
aF4.832496894503405
aF4.832496894503405
aF4.896477387581944
aF5.0
aF5.103522612418055
aF5.167503105496595
aF5.167503105496595
aF5.103522612418056
aF5.000000000000001
aF4.896477387581945
aF4.832496894503405
aF4.832496894503405
aF4.896477387581944
aF7.0
aF6.9200417459221475
aF6.857513347907844
aF6.826045180830115
aF6.832496894503405
aF6.875462099531328
aF6.945574941843978
aF7.027551736675978
aF7.103522612418055
aF7.156926909455043
aF7.176123187872267
aF7.156926909455044
aF7.103522612418056
aF7.027551736675978
aF6.9455749418439785
aF6.875462099531328
aF6.832496894503405
aF6.826045180830115
aF6.857513347907845
aF6.920041745922147
aF7.0
aF7.0799582540778525
aF7.142486652092155
aF7.173954819169885
aF7.167503105496595
aF7.124537900468672
aF7.054425058156022
aF6.972448263324023
aF6.896477387581945
aF6.843073090544957
aF6.823876812127733
aF6.843073090544957
aF6.896477387581945
aF6.972448263324021
aF7.054425058156022
aF7.124537900468672
aF7.167503105496595
aF7.173954819169885
aF7.142486652092156
aF7.0799582540778525
aF6.0
aF6.054425058156022
aF6.103522612418055
aF6.142486652092155
aF6.167503105496595
aF6.176123187872267
aF6.167503105496595
aF6.142486652092156
aF6.103522612418056
aF6.054425058156022
aF6.000000000000001
aF5.9455749418439785
aF5.896477387581945
aF5.857513347907845
aF5.832496894503405
aF5.823876812127733
aF5.832496894503405
aF5.857513347907845
aF5.896477387581944
aF5.945574941843978
aF6.0
aF6.054425058156022
aF6.103522612418056
aF6.142486652092155
aF6.167503105496595
aF6.176123187872267
aF6.167503105496595
aF6.142486652092156
aF6.103522612418056
aF6.054425058156022
aF6.0
aF5.9455749418439785
aF5.896477387581945
aF5.857513347907845
aF5.8324968945034055
aF5.823876812127733
aF5.832496894503405
aF5.857513347907845
aF5.896477387581945
aF5.945574941843978
aF6.0
aF6.054425058156022
aF6.103522612418054
aF6.142486652092155
aF6.167503105496595
aF6.176123187872267
aF6.167503105496595
aF6.142486652092156
aF6.103522612418056
aF6.054425058156022
aF6.000000000000001
aF5.9455749418439785
aF5.896477387581945
aF5.857513347907845
aF5.832496894503405
aF5.823876812127733
aF5.832496894503405
aF5.857513347907845
aF5.896477387581944
aF5.945574941843978
aF6.0
aF6.054425058156022
aF6.103522612418056
aF6.142486652092155
aF6.167503105496595
aF6.176123187872267
aF6.167503105496595
aF6.142486652092156
aF6.103522612418056
aF6.054425058156022
aF6.0
aF5.9455749418439785
aF5.896477387581945
aF5.857513347907845
aF5.8324968945034055
aF5.823876812127733
aF5.832496894503405
aF5.857513347907845
aF5.896477387581945
aF5.945574941843978
aF9.0
aF9.054425058156022
aF9.103522612418054
aF9.142486652092154
aF9.167503105496595
aF9.176123187872268
aF9.167503105496595
aF9.142486652092156
aF9.103522612418056
aF9.054425058156022
aF9.000000000000002
aF8.94557494184398
aF8.896477387581946
aF8.857513347907844
aF8.832496894503405
aF8.823876812127732
aF8.832496894503405
aF8.857513347907844
aF8.896477387581944
aF8.945574941843978
aF9.0
aF9.054425058156022
aF9.103522612418056
aF9.142486652092154
aF9.167503105496595
aF9.176123187872268
aF9.167503105496596
aF9.142486652092156
aF9.103522612418056
aF9.054425058156022
aF9.0
aF8.945574941843978
aF8.896477387581944
aF8.857513347907846
aF8.832496894503405
aF8.823876812127732
aF8.832496894503405
aF8.857513347907844
aF8.896477387581944
aF8.945574941843978
atp76
tp77
Rp78
s(I2
I23
tp79
g2
(g3
g4
(F8.960498396351442
(lp80
F5.0
aF5.075136515108142
aF5.121573435241193
aF5.121573435241193
aF5.075136515108142
aF5.0
aF4.924863484891858
aF4.878426564758807
aF4.878426564758807
aF4.924863484891858
aF5.0
aF5.075136515108142
aF5.121573435241193
aF5.121573435241193
aF5.075136515108142
aF5.0
aF4.924863484891858
aF4.878426564758807
aF4.878426564758807
aF4.924863484891858
aF5.0
aF5.075136515108142
aF5.121573435241193
aF5.121573435241193
aF5.075136515108142
aF5.0
aF4.924863484891858
aF4.878426564758807
aF4.878426564758807
aF4.924863484891858
aF5.0
aF5.075136515108142
aF5.121573435241193
aF5.121573435241193
aF5.075136515108142
aF5.0
aF4.924863484891858
aF4.878426564758807
aF4.878426564758807
aF4.924863484891858
aF5.0
aF5.075136515108142
aF5.121573435241193
aF5.121573435241193
aF5.075136515108142
aF5.0
aF4.924863484891858
aF4.878426564758807
aF4.878426564758807
aF4.924863484891858
aF5.0
aF5.075136515108141
aF5.121573435241193
aF5.121573435241193
aF5.075136515108142
aF5.000000000000001
aF4.924863484891858
aF4.878426564758807
aF4.878426564758807
aF4.924863484891858
aF7.0
aF6.941966451336449
aF6.896583459037945
aF6.873743923251182
aF6.878426564758807
aF6.909610628813028
aF6.96049839635144
aF7.019996998053434
aF7.075136515108141
aF7.11389725227883
aF7.1278298746269915
aF7.11389725227883
aF7.075136515108142
aF7.019996998053433
aF6.960498396351441
aF6.909610628813028
aF6.878426564758807
aF6.873743923251182
aF6.896583459037945
aF6.941966451336448
aF7.0
aF7.058033548663552
aF7.103416540962055
aF7.126256076748818
aF7.121573435241193
aF7.090389371186972
aF7.039501603648559
aF6.980003001946567
aF6.924863484891858
aF6.88610274772117
aF6.8721701253730085
aF6.88610274772117
aF6.924863484891858
aF6.980003001946566
aF7.039501603648559
aF7.090389371186972
aF7.121573435241193
aF7.126256076748818
aF7.103416540962055
aF7.058033548663552
aF6.0
aF6.039501603648559
aF6.075136515108141
aF6.103416540962055
aF6.121573435241193
aF6.1278298746269915
aF6.121573435241193
aF6.103416540962055
aF6.075136515108142
aF6.039501603648559
aF6.000000000000001
aF5.960498396351441
aF5.924863484891858
aF5.896583459037945
aF5.878426564758807
aF5.8721701253730085
aF5.878426564758807
aF5.896583459037945
aF5.924863484891858
aF5.96049839635144
aF6.0
aF6.039501603648559
aF6.075136515108142
aF6.103416540962055
aF6.121573435241193
aF6.1278298746269915
aF6.121573435241193
aF6.103416540962055
aF6.075136515108142
aF6.039501603648559
aF6.0
aF5.960498396351441
aF5.924863484891858
aF5.896583459037945
aF5.878426564758807
aF5.8721701253730085
aF5.878426564758807
aF5.896583459037945
aF5.924863484891858
aF5.96049839635144
aF6.0
aF6.039501603648559
aF6.075136515108141
aF6.103416540962055
aF6.121573435241193
aF6.1278298746269915
aF6.121573435241193
aF6.103416540962055
aF6.075136515108142
aF6.039501603648559
aF6.000000000000001
aF5.960498396351441
aF5.924863484891858
aF5.896583459037945
aF5.878426564758807
aF5.8721701253730085
aF5.878426564758807
aF5.896583459037945
aF5.924863484891858
aF5.96049839635144
aF6.0
aF6.039501603648559
aF6.075136515108142
aF6.103416540962055
aF6.121573435241193
aF6.1278298746269915
aF6.121573435241193
aF6.103416540962056
aF6.075136515108142
aF6.039501603648559
aF6.0
aF5.960498396351441
aF5.924863484891858
aF5.896583459037945
aF5.878426564758807
aF5.8721701253730085
aF5.878426564758807
aF5.896583459037945
aF5.924863484891858
aF5.96049839635144
aF9.0
aF9.03950160364856
aF9.075136515108142
aF9.103416540962055
aF9.121573435241192
aF9.127829874626991
aF9.121573435241192
aF9.103416540962055
aF9.075136515108142
aF9.03950160364856
aF9.0
aF8.960498396351442
aF8.924863484891858
aF8.896583459037945
aF8.878426564758808
aF8.872170125373009
aF8.878426564758808
aF8.896583459037945
aF8.924863484891858
aF8.96049839635144
aF9.0
aF9.03950160364856
aF9.075136515108142
aF9.103416540962055
aF9.121573435241192
aF9.127829874626991
aF9.121573435241194
aF9.103416540962055
aF9.075136515108142
aF9.03950160364856
aF9.0
aF8.96049839635144
aF8.924863484891858
aF8.896583459037945
aF8.878426564758808
aF8.872170125373009
aF8.878426564758808
aF8.896583459037945
aF8.924863484891858
aF8.960498396351442
atp81
tp82
Rp83
s(I16
I9
tp84
g2
(g3
g4
(F8.966692596315212
(lp85
F5.0
aF5.063354446630583
aF5.102509647986724
aF5.102509647986724
aF5.063354446630583
aF5.0
aF4.936645553369417
aF4.897490352013276
aF4.897490352013276
aF4.936645553369417
aF5.0
aF5.063354446630583
aF5.102509647986724
aF5.102509647986724
aF5.063354446630583
aF5.0
aF4.936645553369417
aF4.897490352013276
aF4.897490352013276
aF4.936645553369417
aF5.0
aF5.063354446630583
aF5.102509647986724
aF5.102509647986724
aF5.063354446630583
aF5.0
aF4.936645553369417
aF4.897490352013276
aF4.897490352013276
aF4.936645553369417
aF5.0
aF5.063354446630583
aF5.102509647986724
aF5.102509647986724
aF5.063354446630583
aF5.0
aF4.936645553369417
aF4.897490352013276
aF4.897490352013276
aF4.936645553369417
aF5.0
aF5.063354446630583
aF5.102509647986724
aF5.102509647986724
aF5.063354446630583
aF5.0
aF4.936645553369417
aF4.897490352013276
aF4.897490352013276
aF4.936645553369417
aF5.0
aF5.063354446630583
aF5.102509647986724
aF5.102509647986724
aF5.063354446630583
aF5.000000000000001
aF4.936645553369417
aF4.897490352013276
aF4.897490352013276
aF4.9366455533694165
aF7.0
aF6.951066623780774
aF6.91280008507621
aF6.893541990007692
aF6.897490352013276
aF6.92378447969546
aF6.966692596315211
aF7.016861292330695
aF7.063354446630583
aF7.09603715823769
aF7.107785022478003
aF7.09603715823769
aF7.063354446630583
aF7.016861292330695
aF6.9666925963152115
aF6.92378447969546
aF6.897490352013276
aF6.893541990007692
aF6.91280008507621
aF6.951066623780773
aF7.0
aF7.048933376219227
aF7.08719991492379
aF7.106458009992308
aF7.102509647986724
aF7.07621552030454
aF7.0333074036847885
aF6.983138707669305
aF6.936645553369417
aF6.90396284176231
aF6.892214977521997
aF6.90396284176231
aF6.936645553369417
aF6.983138707669304
aF7.0333074036847885
aF7.07621552030454
aF7.102509647986724
aF7.106458009992308
aF7.08719991492379
aF7.048933376219227
aF6.0
aF6.0333074036847885
aF6.063354446630583
aF6.08719991492379
aF6.102509647986724
aF6.107785022478003
aF6.102509647986724
aF6.08719991492379
aF6.063354446630583
aF6.0333074036847885
aF6.000000000000001
aF5.9666925963152115
aF5.936645553369417
aF5.91280008507621
aF5.897490352013276
aF5.892214977521997
aF5.897490352013276
aF5.91280008507621
aF5.9366455533694165
aF5.966692596315211
aF6.0
aF6.0333074036847885
aF6.0633544466305835
aF6.08719991492379
aF6.102509647986724
aF6.107785022478003
aF6.102509647986724
aF6.08719991492379
aF6.063354446630583
aF6.0333074036847885
aF6.0
aF5.9666925963152115
aF5.936645553369417
aF5.91280008507621
aF5.897490352013276
aF5.892214977521997
aF5.897490352013276
aF5.91280008507621
aF5.936645553369417
aF5.966692596315211
aF6.0
aF6.0333074036847885
aF6.063354446630583
aF6.08719991492379
aF6.102509647986724
aF6.107785022478003
aF6.102509647986724
aF6.08719991492379
aF6.063354446630583
aF6.0333074036847885
aF6.000000000000001
aF5.9666925963152115
aF5.936645553369417
aF5.91280008507621
aF5.897490352013276
aF5.892214977521997
aF5.897490352013276
aF5.91280008507621
aF5.9366455533694165
aF5.966692596315211
aF6.0
aF6.0333074036847885
aF6.063354446630583
aF6.08719991492379
aF6.102509647986724
aF6.107785022478003
aF6.102509647986724
aF6.08719991492379
aF6.0633544466305835
aF6.0333074036847885
aF6.0
aF5.9666925963152115
aF5.936645553369417
aF5.91280008507621
aF5.897490352013276
aF5.892214977521997
aF5.897490352013276
aF5.91280008507621
aF5.936645553369417
aF5.966692596315211
aF9.0
aF9.03330740368479
aF9.063354446630582
aF9.08719991492379
aF9.102509647986725
aF9.107785022478003
aF9.102509647986725
aF9.08719991492379
aF9.063354446630584
aF9.03330740368479
aF9.0
aF8.966692596315212
aF8.936645553369416
aF8.91280008507621
aF8.897490352013275
aF8.892214977521997
aF8.897490352013275
aF8.91280008507621
aF8.936645553369416
aF8.96669259631521
aF9.0
aF9.03330740368479
aF9.063354446630584
aF9.08719991492379
aF9.102509647986723
aF9.107785022478003
aF9.102509647986725
aF9.08719991492379
aF9.063354446630584
aF9.03330740368479
aF9.0
aF8.96669259631521
aF8.936645553369416
aF8.91280008507621
aF8.897490352013277
aF8.892214977521997
aF8.897490352013275
aF8.91280008507621
aF8.936645553369416
aF8.966692596315212
atp86
tp87
Rp88
s(I2
I13
tp89
g2
(g3
g4
(F8.950514841460905
(lp90
F5.0
aF5.094126364977011
aF5.152299657770283
aF5.152299657770283
aF5.094126364977011
aF5.0
aF4.905873635022989
aF4.847700342229717
aF4.847700342229717
aF4.905873635022989
aF5.0
aF5.094126364977011
aF5.152299657770283
aF5.152299657770283
aF5.094126364977011
aF5.0
aF4.905873635022989
aF4.847700342229717
aF4.847700342229717
aF4.905873635022989
aF5.0
aF5.094126364977011
aF5.152299657770283
aF5.152299657770283
aF5.094126364977011
aF5.0
aF4.905873635022989
aF4.847700342229717
aF4.847700342229717
aF4.905873635022988
aF5.0
aF5.094126364977011
aF5.152299657770283
aF5.152299657770283
aF5.094126364977012
aF5.0
aF4.905873635022989
aF4.847700342229717
aF4.847700342229717
aF4.905873635022988
aF5.0
aF5.094126364977011
aF5.152299657770283
aF5.152299657770283
aF5.094126364977012
aF5.0
aF4.905873635022989
aF4.847700342229717
aF4.847700342229717
aF4.905873635022988
aF5.0
aF5.094126364977011
aF5.152299657770283
aF5.152299657770283
aF5.094126364977012
aF5.000000000000001
aF4.905873635022989
aF4.847700342229717
aF4.847700342229717
aF4.905873635022988
aF7.0
aF6.927299170389329
aF6.87044617300597
aF6.841834219440168
aF6.847700342229717
aF6.886765803149877
aF6.950514841460904
aF7.025050998632462
aF7.094126364977011
aF7.142683411952843
aF7.160137336909869
aF7.142683411952844
aF7.094126364977012
aF7.025050998632462
aF6.950514841460905
aF6.886765803149877
aF6.847700342229717
aF6.841834219440168
aF6.87044617300597
aF6.927299170389328
aF7.0
aF7.072700829610672
aF7.12955382699403
aF7.158165780559832
aF7.152299657770283
aF7.113234196850123
aF7.049485158539095
aF6.974949001367539
aF6.905873635022989
aF6.857316588047157
aF6.839862663090131
aF6.857316588047157
aF6.905873635022989
aF6.974949001367537
aF7.049485158539096
aF7.113234196850122
aF7.152299657770283
aF7.158165780559832
aF7.12955382699403
aF7.072700829610671
aF6.0
aF6.049485158539096
aF6.094126364977011
aF6.12955382699403
aF6.152299657770283
aF6.160137336909869
aF6.152299657770283
aF6.12955382699403
aF6.094126364977012
aF6.049485158539095
aF6.000000000000001
aF5.950514841460905
aF5.905873635022989
aF5.87044617300597
aF5.847700342229717
aF5.839862663090131
aF5.847700342229717
aF5.87044617300597
aF5.905873635022988
aF5.950514841460904
aF6.0
aF6.049485158539096
aF6.094126364977012
aF6.12955382699403
aF6.152299657770283
aF6.160137336909869
aF6.152299657770283
aF6.12955382699403
aF6.094126364977012
aF6.049485158539095
aF6.0
aF5.950514841460905
aF5.905873635022989
aF5.87044617300597
aF5.847700342229717
aF5.839862663090131
aF5.847700342229717
aF5.87044617300597
aF5.905873635022989
aF5.950514841460904
aF6.0
aF6.049485158539096
aF6.094126364977011
aF6.12955382699403
aF6.152299657770283
aF6.160137336909869
aF6.152299657770283
aF6.12955382699403
aF6.094126364977012
aF6.049485158539096
aF6.000000000000001
aF5.950514841460905
aF5.905873635022989
aF5.87044617300597
aF5.847700342229717
aF5.839862663090131
aF5.847700342229717
aF5.87044617300597
aF5.905873635022988
aF5.950514841460904
aF6.0
aF6.049485158539095
aF6.094126364977012
aF6.12955382699403
aF6.152299657770283
aF6.160137336909869
aF6.152299657770283
aF6.12955382699403
aF6.094126364977012
aF6.049485158539096
aF6.0
aF5.950514841460905
aF5.905873635022989
aF5.87044617300597
aF5.847700342229717
aF5.839862663090131
aF5.847700342229717
aF5.87044617300597
aF5.905873635022989
aF5.950514841460904
aF9.0
aF9.049485158539095
aF9.094126364977011
aF9.12955382699403
aF9.152299657770282
aF9.160137336909868
aF9.152299657770282
aF9.12955382699403
aF9.094126364977011
aF9.049485158539095
aF9.000000000000002
aF8.950514841460905
aF8.905873635022989
aF8.87044617300597
aF8.847700342229718
aF8.839862663090132
aF8.847700342229716
aF8.87044617300597
aF8.905873635022987
aF8.950514841460903
aF9.0
aF9.049485158539095
aF9.094126364977011
aF9.12955382699403
aF9.152299657770282
aF9.160137336909868
aF9.152299657770284
aF9.12955382699403
aF9.094126364977011
aF9.049485158539095
aF9.0
aF8.950514841460903
aF8.905873635022987
aF8.87044617300597
aF8.847700342229718
aF8.839862663090132
aF8.847700342229716
aF8.87044617300597
aF8.905873635022989
aF8.950514841460905
atp91
tp92
Rp93
s(I17
I23
tp94
g2
(g3
g4
(F8.945922751135658
(lp95
F5.0
aF5.102861039831495
aF5.166432658565515
aF5.166432658565515
aF5.102861039831495
aF5.0
aF4.897138960168505
aF4.833567341434485
aF4.833567341434485
aF4.897138960168505
aF5.0
aF5.102861039831495
aF5.166432658565515
aF5.166432658565515
aF5.102861039831495
aF5.0
aF4.897138960168505
aF4.833567341434485
aF4.833567341434485
aF4.897138960168505
aF5.0
aF5.102861039831495
aF5.166432658565515
aF5.166432658565515
aF5.102861039831495
aF5.0
aF4.897138960168505
aF4.833567341434485
aF4.833567341434485
aF4.897138960168505
aF5.0
aF5.102861039831495
aF5.166432658565515
aF5.166432658565515
aF5.102861039831495
aF5.0
aF4.897138960168505
aF4.833567341434485
aF4.833567341434485
aF4.897138960168505
aF5.0
aF5.102861039831494
aF5.166432658565515
aF5.166432658565515
aF5.102861039831495
aF5.0
aF4.897138960168506
aF4.833567341434485
aF4.833567341434485
aF4.897138960168505
aF5.0
aF5.102861039831494
aF5.166432658565515
aF5.166432658565515
aF5.102861039831495
aF5.000000000000001
aF4.897138960168506
aF4.833567341434485
aF4.833567341434485
aF4.897138960168505
aF7.0
aF6.920552727897308
aF6.858423924455065
aF6.827156858143648
aF6.833567341434485
aF6.876257972616573
aF6.945922751135657
aF7.027375664286852
aF7.102861039831494
aF7.15592405086247
aF7.174997653361185
aF7.15592405086247
aF7.102861039831495
aF7.027375664286852
aF6.945922751135658
aF6.876257972616573
aF6.833567341434485
aF6.827156858143648
aF6.8584239244550655
aF6.920552727897307
aF7.0
aF7.079447272102692
aF7.1415760755449345
aF7.172843141856352
aF7.166432658565516
aF7.123742027383427
aF7.054077248864342
aF6.972624335713148
aF6.897138960168506
aF6.84407594913753
aF6.825002346638815
aF6.84407594913753
aF6.897138960168506
aF6.972624335713147
aF7.054077248864342
aF7.123742027383426
aF7.166432658565515
aF7.172843141856352
aF7.141576075544935
aF7.079447272102692
aF6.0
aF6.054077248864343
aF6.102861039831494
aF6.1415760755449345
aF6.166432658565515
aF6.174997653361185
aF6.166432658565515
aF6.141576075544935
aF6.102861039831495
aF6.054077248864342
aF6.000000000000001
aF5.945922751135658
aF5.897138960168506
aF5.858423924455065
aF5.833567341434485
aF5.825002346638815
aF5.833567341434485
aF5.8584239244550655
aF5.897138960168505
aF5.945922751135657
aF6.0
aF6.054077248864343
aF6.102861039831495
aF6.1415760755449345
aF6.166432658565515
aF6.174997653361185
aF6.166432658565516
aF6.141576075544935
aF6.102861039831495
aF6.054077248864342
aF6.0
aF5.945922751135658
aF5.897138960168506
aF5.858423924455065
aF5.833567341434485
aF5.825002346638815
aF5.833567341434485
aF5.858423924455065
aF5.897138960168506
aF5.945922751135657
aF6.0
aF6.054077248864342
aF6.102861039831494
aF6.1415760755449345
aF6.166432658565515
aF6.174997653361185
aF6.166432658565515
aF6.141576075544935
aF6.102861039831495
aF6.054077248864342
aF6.000000000000001
aF5.945922751135658
aF5.897138960168506
aF5.858423924455065
aF5.833567341434485
aF5.825002346638815
aF5.833567341434485
aF5.858423924455065
aF5.897138960168504
aF5.945922751135657
aF6.0
aF6.054077248864342
aF6.102861039831495
aF6.1415760755449345
aF6.166432658565515
aF6.174997653361185
aF6.166432658565516
aF6.141576075544935
aF6.102861039831495
aF6.054077248864343
aF6.0
aF5.945922751135658
aF5.897138960168506
aF5.8584239244550655
aF5.833567341434485
aF5.825002346638815
aF5.833567341434485
aF5.858423924455065
aF5.897138960168506
aF5.945922751135657
aF9.0
aF9.054077248864342
aF9.102861039831494
aF9.141576075544934
aF9.166432658565515
aF9.174997653361185
aF9.166432658565515
aF9.141576075544936
aF9.102861039831495
aF9.054077248864342
aF9.000000000000002
aF8.945922751135658
aF8.897138960168505
aF8.858423924455066
aF8.833567341434485
aF8.825002346638815
aF8.833567341434485
aF8.858423924455066
aF8.897138960168505
aF8.945922751135656
aF9.0
aF9.054077248864342
aF9.102861039831495
aF9.141576075544934
aF9.166432658565515
aF9.174997653361185
aF9.166432658565515
aF9.141576075544936
aF9.102861039831495
aF9.054077248864342
aF9.0
aF8.945922751135658
aF8.897138960168505
aF8.858423924455066
aF8.833567341434485
aF8.825002346638815
aF8.833567341434485
aF8.858423924455066
aF8.897138960168505
aF8.945922751135658
atp96
tp97
Rp98
s(I12
I10
tp99
g2
(g3
g4
(F8.96772434071658
(lp100
F5.0
aF5.061391952158436
aF5.099334265228057
aF5.099334265228057
aF5.061391952158436
aF5.0
aF4.938608047841564
aF4.900665734771943
aF4.900665734771943
aF4.938608047841564
aF5.0
aF5.061391952158436
aF5.099334265228057
aF5.099334265228057
aF5.061391952158436
aF5.0
aF4.938608047841564
aF4.900665734771943
aF4.900665734771943
aF4.938608047841564
aF5.0
aF5.061391952158436
aF5.099334265228057
aF5.099334265228057
aF5.061391952158436
aF5.0
aF4.938608047841564
aF4.900665734771943
aF4.900665734771943
aF4.938608047841564
aF5.0
aF5.061391952158436
aF5.099334265228057
aF5.099334265228057
aF5.061391952158436
aF5.0
aF4.938608047841564
aF4.900665734771943
aF4.900665734771943
aF4.938608047841564
aF5.0
aF5.061391952158436
aF5.099334265228057
aF5.099334265228057
aF5.061391952158436
aF5.0
aF4.938608047841564
aF4.900665734771943
aF4.900665734771943
aF4.938608047841564
aF5.0
aF5.061391952158436
aF5.099334265228057
aF5.099334265228057
aF5.061391952158436
aF5.000000000000001
aF4.938608047841564
aF4.900665734771943
aF4.900665734771943
aF4.938608047841563
aF7.0
aF6.95258240499963
aF6.915501226986697
aF6.89683967891884
aF6.900665734771943
aF6.926145364293846
aF6.967724340716581
aF7.016338989718139
aF7.061391952158436
aF7.093062270093514
aF7.104446227459767
aF7.093062270093515
aF7.061391952158436
aF7.016338989718139
aF6.967724340716581
aF6.926145364293846
aF6.900665734771943
aF6.89683967891884
aF6.915501226986697
aF6.95258240499963
aF7.0
aF7.04741759500037
aF7.084498773013303
aF7.10316032108116
aF7.099334265228057
aF7.073854635706154
aF7.032275659283419
aF6.983661010281861
aF6.938608047841564
aF6.906937729906485
aF6.895553772540233
aF6.906937729906485
aF6.938608047841564
aF6.98366101028186
aF7.032275659283419
aF7.073854635706153
aF7.099334265228057
aF7.10316032108116
aF7.084498773013303
aF7.04741759500037
aF6.0
aF6.032275659283419
aF6.061391952158436
aF6.084498773013303
aF6.099334265228057
aF6.104446227459767
aF6.099334265228057
aF6.084498773013303
aF6.061391952158436
aF6.032275659283419
aF6.000000000000001
aF5.967724340716581
aF5.938608047841564
aF5.915501226986697
aF5.900665734771943
aF5.895553772540233
aF5.900665734771943
aF5.915501226986697
aF5.938608047841563
aF5.967724340716581
aF6.0
aF6.032275659283419
aF6.061391952158436
aF6.084498773013303
aF6.099334265228057
aF6.104446227459767
aF6.099334265228057
aF6.084498773013303
aF6.061391952158436
aF6.032275659283419
aF6.0
aF5.967724340716581
aF5.938608047841564
aF5.915501226986697
aF5.900665734771943
aF5.895553772540233
aF5.900665734771943
aF5.915501226986697
aF5.938608047841564
aF5.96772434071658
aF6.0
aF6.032275659283419
aF6.061391952158436
aF6.084498773013303
aF6.099334265228057
aF6.104446227459767
aF6.099334265228057
aF6.084498773013303
aF6.061391952158436
aF6.032275659283419
aF6.000000000000001
aF5.967724340716581
aF5.938608047841564
aF5.915501226986697
aF5.900665734771943
aF5.895553772540233
aF5.900665734771943
aF5.915501226986697
aF5.938608047841563
aF5.96772434071658
aF6.0
aF6.032275659283419
aF6.061391952158436
aF6.084498773013303
aF6.099334265228057
aF6.104446227459767
aF6.099334265228058
aF6.084498773013303
aF6.061391952158436
aF6.032275659283419
aF6.0
aF5.967724340716581
aF5.938608047841564
aF5.915501226986697
aF5.900665734771943
aF5.895553772540233
aF5.900665734771943
aF5.915501226986697
aF5.938608047841564
aF5.96772434071658
aF9.0
aF9.03227565928342
aF9.061391952158436
aF9.084498773013303
aF9.099334265228057
aF9.104446227459768
aF9.099334265228057
aF9.084498773013303
aF9.061391952158436
aF9.03227565928342
aF9.0
aF8.96772434071658
aF8.938608047841564
aF8.915501226986697
aF8.900665734771943
aF8.895553772540232
aF8.900665734771943
aF8.915501226986697
aF8.938608047841564
aF8.96772434071658
aF9.0
aF9.03227565928342
aF9.061391952158436
aF9.084498773013303
aF9.099334265228057
aF9.104446227459768
aF9.099334265228057
aF9.084498773013303
aF9.061391952158436
aF9.03227565928342
aF9.0
aF8.96772434071658
aF8.938608047841564
aF8.915501226986697
aF8.900665734771943
aF8.895553772540232
aF8.900665734771943
aF8.915501226986697
aF8.938608047841564
aF8.96772434071658
atp101
tp102
Rp103
s(I20
I22
tp104
g2
(g3
g4
(F8.959245983761939
(lp105
F5.0
aF5.077518745416814
aF5.125427964849655
aF5.125427964849655
aF5.077518745416814
aF5.0
aF4.922481254583186
aF4.874572035150345
aF4.874572035150345
aF4.922481254583186
aF5.0
aF5.077518745416814
aF5.125427964849655
aF5.125427964849655
aF5.077518745416814
aF5.0
aF4.922481254583186
aF4.874572035150345
aF4.874572035150345
aF4.922481254583186
aF5.0
aF5.077518745416814
aF5.125427964849655
aF5.125427964849655
aF5.077518745416814
aF5.0
aF4.922481254583186
aF4.874572035150345
aF4.874572035150345
aF4.922481254583186
aF5.0
aF5.077518745416814
aF5.125427964849655
aF5.125427964849655
aF5.077518745416814
aF5.0
aF4.922481254583186
aF4.874572035150345
aF4.874572035150345
aF4.922481254583186
aF5.0
aF5.077518745416814
aF5.125427964849655
aF5.125427964849655
aF5.077518745416814
aF5.0
aF4.922481254583186
aF4.874572035150345
aF4.874572035150345
aF4.922481254583186
aF5.0
aF5.077518745416813
aF5.125427964849655
aF5.125427964849655
aF5.077518745416814
aF5.000000000000001
aF4.922481254583187
aF4.874572035150345
aF4.874572035150345
aF4.922481254583186
aF7.0
aF6.940126476746902
aF6.89330460031069
aF6.869740928804977
aF6.874572035150345
aF6.906744801201599
aF6.959245983761938
aF7.020631010088418
aF7.077518745416813
aF7.117508405738138
aF7.131882766902497
aF7.117508405738139
aF7.077518745416814
aF7.020631010088417
aF6.959245983761939
aF6.9067448012016
aF6.874572035150345
aF6.869740928804977
aF6.89330460031069
aF6.940126476746901
aF7.0
aF7.059873523253099
aF7.106695399689309
aF7.130259071195023
aF7.125427964849655
aF7.093255198798401
aF7.040754016238061
aF6.979368989911583
aF6.922481254583187
aF6.882491594261861
aF6.868117233097503
aF6.882491594261861
aF6.922481254583187
aF6.979368989911582
aF7.040754016238061
aF7.0932551987984
aF7.125427964849655
aF7.130259071195023
aF7.10669539968931
aF7.059873523253099
aF6.0
aF6.040754016238061
aF6.077518745416813
aF6.106695399689309
aF6.125427964849655
aF6.131882766902497
aF6.125427964849655
aF6.10669539968931
aF6.077518745416814
aF6.040754016238061
aF6.000000000000001
aF5.959245983761939
aF5.922481254583187
aF5.89330460031069
aF5.874572035150345
aF5.868117233097503
aF5.874572035150345
aF5.89330460031069
aF5.922481254583186
aF5.959245983761938
aF6.0
aF6.040754016238061
aF6.077518745416814
aF6.106695399689309
aF6.125427964849655
aF6.131882766902497
aF6.125427964849655
aF6.10669539968931
aF6.077518745416814
aF6.040754016238061
aF6.0
aF5.959245983761939
aF5.922481254583187
aF5.89330460031069
aF5.874572035150345
aF5.868117233097503
aF5.874572035150345
aF5.89330460031069
aF5.922481254583187
aF5.959245983761938
aF6.0
aF6.040754016238061
aF6.077518745416813
aF6.106695399689309
aF6.125427964849655
aF6.131882766902497
aF6.125427964849655
aF6.10669539968931
aF6.077518745416814
aF6.040754016238061
aF6.000000000000001
aF5.959245983761939
aF5.922481254583187
aF5.89330460031069
aF5.874572035150345
aF5.868117233097503
aF5.874572035150345
aF5.89330460031069
aF5.922481254583186
aF5.959245983761938
aF6.0
aF6.040754016238061
aF6.077518745416814
aF6.106695399689309
aF6.125427964849655
aF6.131882766902497
aF6.125427964849655
aF6.10669539968931
aF6.077518745416814
aF6.040754016238061
aF6.0
aF5.959245983761939
aF5.922481254583187
aF5.89330460031069
aF5.874572035150345
aF5.868117233097503
aF5.874572035150345
aF5.89330460031069
aF5.922481254583187
aF5.959245983761938
aF9.0
aF9.040754016238061
aF9.077518745416812
aF9.10669539968931
aF9.125427964849655
aF9.131882766902498
aF9.125427964849655
aF9.106695399689311
aF9.077518745416814
aF9.040754016238061
aF9.0
aF8.959245983761939
aF8.922481254583186
aF8.89330460031069
aF8.874572035150345
aF8.868117233097502
aF8.874572035150345
aF8.89330460031069
aF8.922481254583186
aF8.959245983761939
aF9.0
aF9.040754016238061
aF9.077518745416814
aF9.10669539968931
aF9.125427964849655
aF9.131882766902498
aF9.125427964849655
aF9.106695399689311
aF9.077518745416814
aF9.040754016238061
aF9.0
aF8.959245983761939
aF8.922481254583186
aF8.89330460031069
aF8.874572035150345
aF8.868117233097502
aF8.874572035150345
aF8.89330460031069
aF8.922481254583186
aF8.959245983761939
atp106
tp107
Rp108
s(I19
I6
tp109
g2
(g3
g4
(F8.968903937243573
(lp110
F5.0
aF5.059148226231246
aF5.095703840416423
aF5.095703840416423
aF5.059148226231246
aF5.0
aF4.940851773768754
aF4.904296159583577
aF4.904296159583577
aF4.940851773768754
aF5.0
aF5.059148226231246
aF5.095703840416423
aF5.095703840416423
aF5.059148226231246
aF5.0
aF4.940851773768754
aF4.904296159583577
aF4.904296159583577
aF4.940851773768754
aF5.0
aF5.059148226231246
aF5.095703840416423
aF5.095703840416423
aF5.059148226231246
aF5.0
aF4.940851773768754
aF4.904296159583577
aF4.904296159583577
aF4.940851773768754
aF5.0
aF5.059148226231246
aF5.095703840416423
aF5.095703840416423
aF5.059148226231246
aF5.0
aF4.940851773768754
aF4.904296159583577
aF4.904296159583577
aF4.940851773768754
aF5.0
aF5.059148226231246
aF5.095703840416423
aF5.095703840416423
aF5.059148226231246
aF5.0
aF4.940851773768754
aF4.904296159583577
aF4.904296159583577
aF4.940851773768754
aF5.0
aF5.059148226231245
aF5.095703840416423
aF5.095703840416423
aF5.059148226231246
aF5.000000000000001
aF4.940851773768754
aF4.904296159583577
aF4.904296159583577
aF4.940851773768754
aF7.0
aF6.9543154022992235
aF6.918589450787375
aF6.900609936728362
aF6.904296159583577
aF6.928844570869807
aF6.968903937243573
aF7.015741839545099
aF7.059148226231245
aF7.08966107138732
aF7.100628972912396
aF7.0896610713873205
aF7.059148226231246
aF7.015741839545099
aF6.9689039372435735
aF6.928844570869807
aF6.904296159583577
aF6.900609936728362
aF6.918589450787375
aF6.9543154022992235
aF7.0
aF7.0456845977007765
aF7.081410549212625
aF7.099390063271638
aF7.095703840416423
aF7.071155429130193
aF7.0310960627564265
aF6.984258160454901
aF6.940851773768754
aF6.91033892861268
aF6.899371027087604
aF6.91033892861268
aF6.940851773768754
aF6.984258160454901
aF7.0310960627564265
aF7.071155429130193
aF7.095703840416423
aF7.099390063271638
aF7.081410549212626
aF7.0456845977007765
aF6.0
aF6.0310960627564265
aF6.059148226231245
aF6.081410549212625
aF6.095703840416423
aF6.100628972912396
aF6.095703840416423
aF6.081410549212626
aF6.059148226231246
aF6.0310960627564265
aF6.000000000000001
aF5.9689039372435735
aF5.940851773768754
aF5.918589450787375
aF5.904296159583577
aF5.899371027087604
aF5.904296159583577
aF5.918589450787375
aF5.940851773768754
aF5.968903937243573
aF6.0
aF6.0310960627564265
aF6.059148226231246
aF6.081410549212625
aF6.095703840416423
aF6.100628972912396
aF6.095703840416423
aF6.081410549212626
aF6.059148226231246
aF6.0310960627564265
aF6.0
aF5.9689039372435735
aF5.940851773768754
aF5.918589450787375
aF5.904296159583577
aF5.899371027087604
aF5.904296159583577
aF5.918589450787375
aF5.940851773768754
aF5.968903937243573
aF6.0
aF6.0310960627564265
aF6.059148226231245
aF6.081410549212625
aF6.095703840416423
aF6.100628972912396
aF6.095703840416423
aF6.081410549212626
aF6.059148226231246
aF6.0310960627564265
aF6.000000000000001
aF5.9689039372435735
aF5.940851773768754
aF5.918589450787375
aF5.904296159583577
aF5.899371027087604
aF5.904296159583577
aF5.918589450787375
aF5.940851773768754
aF5.968903937243573
aF6.0
aF6.0310960627564265
aF6.059148226231246
aF6.081410549212625
aF6.095703840416423
aF6.100628972912396
aF6.095703840416424
aF6.081410549212626
aF6.059148226231246
aF6.0310960627564265
aF6.0
aF5.9689039372435735
aF5.940851773768754
aF5.918589450787375
aF5.904296159583577
aF5.899371027087604
aF5.904296159583577
aF5.918589450787375
aF5.940851773768754
aF5.968903937243573
aF9.0
aF9.031096062756427
aF9.059148226231246
aF9.081410549212626
aF9.095703840416423
aF9.100628972912396
aF9.095703840416423
aF9.081410549212626
aF9.059148226231246
aF9.031096062756427
aF9.0
aF8.968903937243574
aF8.940851773768754
aF8.918589450787374
aF8.904296159583577
aF8.899371027087604
aF8.904296159583577
aF8.918589450787374
aF8.940851773768754
aF8.968903937243573
aF9.0
aF9.031096062756427
aF9.059148226231246
aF9.081410549212626
aF9.095703840416423
aF9.100628972912396
aF9.095703840416423
aF9.081410549212626
aF9.059148226231246
aF9.031096062756427
aF9.0
aF8.968903937243573
aF8.940851773768754
aF8.918589450787376
aF8.904296159583577
aF8.899371027087604
aF8.904296159583577
aF8.918589450787374
aF8.940851773768754
aF8.968903937243573
atp111
tp112
Rp113
s(I16
I4
tp114
g2
(g3
g4
(F8.945285030036125
(lp115
F5.0
aF5.104074057446075
aF5.168395362294858
aF5.168395362294858
aF5.104074057446075
aF5.0
aF4.895925942553925
aF4.831604637705142
aF4.831604637705142
aF4.895925942553925
aF5.0
aF5.104074057446075
aF5.168395362294858
aF5.168395362294858
aF5.104074057446075
aF5.0
aF4.895925942553925
aF4.831604637705142
aF4.831604637705142
aF4.895925942553925
aF5.0
aF5.104074057446075
aF5.168395362294858
aF5.168395362294858
aF5.104074057446075
aF5.0
aF4.895925942553926
aF4.831604637705142
aF4.831604637705142
aF4.895925942553925
aF5.0
aF5.104074057446074
aF5.168395362294858
aF5.168395362294858
aF5.104074057446075
aF5.0
aF4.895925942553926
aF4.831604637705142
aF4.831604637705142
aF4.895925942553925
aF5.0
aF5.104074057446074
aF5.168395362294858
aF5.168395362294858
aF5.104074057446075
aF5.0
aF4.895925942553926
aF4.831604637705142
aF4.831604637705142
aF4.895925942553925
aF5.0
aF5.104074057446074
aF5.168395362294858
aF5.168395362294858
aF5.104074057446075
aF5.000000000000001
aF4.895925942553926
aF4.831604637705142
aF4.831604637705142
aF4.895925942553925
aF7.0
aF6.919615823694815
aF6.856754348941144
aF6.825118556995084
aF6.831604637705142
aF6.874798710109351
aF6.945285030036124
aF7.027698499473481
aF7.104074057446074
aF7.157762828892934
aF7.177061362189961
aF7.157762828892935
aF7.104074057446075
aF7.02769849947348
aF6.945285030036125
aF6.874798710109352
aF6.831604637705142
aF6.825118556995084
aF6.856754348941144
aF6.919615823694814
aF7.0
aF7.080384176305185
aF7.143245651058855
aF7.174881443004916
aF7.168395362294858
aF7.125201289890649
aF7.054714969963875
aF6.97230150052652
aF6.895925942553926
aF6.842237171107065
aF6.822938637810039
aF6.842237171107065
aF6.895925942553926
aF6.972301500526519
aF7.054714969963875
aF7.125201289890648
aF7.168395362294858
aF7.174881443004916
aF7.143245651058856
aF7.080384176305185
aF6.0
aF6.054714969963876
aF6.104074057446074
aF6.143245651058855
aF6.168395362294858
aF6.177061362189961
aF6.168395362294858
aF6.143245651058856
aF6.104074057446075
aF6.054714969963875
aF6.000000000000001
aF5.945285030036125
aF5.895925942553926
aF5.856754348941144
aF5.831604637705142
aF5.822938637810039
aF5.831604637705142
aF5.856754348941144
aF5.895925942553925
aF5.945285030036124
aF6.0
aF6.054714969963875
aF6.104074057446075
aF6.143245651058855
aF6.168395362294858
aF6.177061362189961
aF6.168395362294858
aF6.143245651058856
aF6.104074057446075
aF6.054714969963875
aF6.0
aF5.945285030036125
aF5.895925942553926
aF5.856754348941144
aF5.8316046377051425
aF5.822938637810039
aF5.831604637705142
aF5.856754348941144
aF5.895925942553926
aF5.945285030036124
aF6.0
aF6.054714969963875
aF6.104074057446074
aF6.143245651058855
aF6.168395362294858
aF6.177061362189961
aF6.168395362294858
aF6.143245651058856
aF6.104074057446075
aF6.054714969963875
aF6.000000000000001
aF5.945285030036125
aF5.895925942553926
aF5.856754348941144
aF5.831604637705142
aF5.822938637810039
aF5.831604637705142
aF5.856754348941144
aF5.895925942553925
aF5.945285030036124
aF6.0
aF6.054714969963875
aF6.104074057446075
aF6.143245651058855
aF6.168395362294858
aF6.177061362189961
aF6.168395362294858
aF6.143245651058856
aF6.104074057446075
aF6.054714969963875
aF6.0
aF5.945285030036125
aF5.895925942553926
aF5.856754348941144
aF5.8316046377051425
aF5.822938637810039
aF5.831604637705142
aF5.856754348941144
aF5.895925942553926
aF5.945285030036124
aF9.0
aF9.054714969963875
aF9.104074057446073
aF9.143245651058855
aF9.168395362294858
aF9.17706136218996
aF9.168395362294858
aF9.143245651058857
aF9.104074057446075
aF9.054714969963875
aF9.000000000000002
aF8.945285030036125
aF8.895925942553925
aF8.856754348941145
aF8.831604637705142
aF8.82293863781004
aF8.831604637705142
aF8.856754348941145
aF8.895925942553925
aF8.945285030036123
aF9.0
aF9.054714969963875
aF9.104074057446075
aF9.143245651058855
aF9.168395362294858
aF9.17706136218996
aF9.16839536229486
aF9.143245651058857
aF9.104074057446075
aF9.054714969963875
aF9.0
aF8.945285030036125
aF8.895925942553925
aF8.856754348941145
aF8.831604637705142
aF8.82293863781004
aF8.831604637705142
aF8.856754348941145
aF8.895925942553925
aF8.945285030036125
atp116
tp117
Rp118
s(I17
I10
tp119
g2
(g3
g4
(F8.963093664857961
(lp120
F5.0
aF5.070200021058819
aF5.113586020084128
aF5.113586020084128
aF5.070200021058819
aF5.0
aF4.929799978941181
aF4.886413979915872
aF4.886413979915872
aF4.929799978941181
aF5.0
aF5.070200021058819
aF5.113586020084128
aF5.113586020084128
aF5.070200021058819
aF5.0
aF4.929799978941181
aF4.886413979915872
aF4.886413979915872
aF4.929799978941181
aF5.0
aF5.070200021058819
aF5.113586020084128
aF5.113586020084128
aF5.070200021058819
aF5.0
aF4.929799978941181
aF4.886413979915872
aF4.886413979915872
aF4.929799978941181
aF5.0
aF5.070200021058819
aF5.113586020084128
aF5.113586020084128
aF5.070200021058819
aF5.0
aF4.929799978941181
aF4.886413979915872
aF4.886413979915872
aF4.929799978941181
aF5.0
aF5.070200021058819
aF5.113586020084128
aF5.113586020084128
aF5.070200021058819
aF5.0
aF4.929799978941181
aF4.886413979915872
aF4.886413979915872
aF4.929799978941181
aF5.0
aF5.070200021058819
aF5.113586020084128
aF5.113586020084128
aF5.070200021058819
aF5.000000000000001
aF4.929799978941181
aF4.886413979915872
aF4.886413979915872
aF4.92979997894118
aF7.0
aF6.945779274798201
aF6.903377960197945
aF6.882038989513761
aF6.886413979915872
aF6.9155492405831405
aF6.9630936648579596
aF7.01868318862598
aF7.070200021058819
aF7.106414164897158
aF7.11943140932003
aF7.106414164897158
aF7.070200021058819
aF7.01868318862598
aF6.96309366485796
aF6.9155492405831405
aF6.886413979915872
aF6.882038989513761
aF6.903377960197945
aF6.945779274798201
aF7.0
aF7.054220725201799
aF7.096622039802054
aF7.117961010486239
aF7.113586020084129
aF7.0844507594168595
aF7.03690633514204
aF6.981316811374021
aF6.929799978941181
aF6.893585835102842
aF6.88056859067997
aF6.893585835102842
aF6.929799978941181
aF6.98131681137402
aF7.03690633514204
aF7.084450759416859
aF7.113586020084128
aF7.117961010486239
aF7.096622039802055
aF7.054220725201799
aF6.0
aF6.03690633514204
aF6.070200021058819
aF6.096622039802055
aF6.113586020084128
aF6.11943140932003
aF6.113586020084128
aF6.096622039802055
aF6.070200021058819
aF6.03690633514204
aF6.000000000000001
aF5.96309366485796
aF5.929799978941181
aF5.903377960197945
aF5.886413979915872
aF5.88056859067997
aF5.886413979915872
aF5.903377960197945
aF5.92979997894118
aF5.9630936648579596
aF6.0
aF6.03690633514204
aF6.070200021058819
aF6.096622039802054
aF6.113586020084128
aF6.11943140932003
aF6.113586020084129
aF6.096622039802055
aF6.070200021058819
aF6.03690633514204
aF6.0
aF5.96309366485796
aF5.929799978941181
aF5.903377960197945
aF5.886413979915872
aF5.88056859067997
aF5.886413979915872
aF5.903377960197945
aF5.929799978941181
aF5.9630936648579596
aF6.0
aF6.03690633514204
aF6.0702000210588185
aF6.096622039802054
aF6.113586020084128
aF6.11943140932003
aF6.113586020084128
aF6.096622039802055
aF6.070200021058819
aF6.03690633514204
aF6.000000000000001
aF5.96309366485796
aF5.929799978941181
aF5.903377960197945
aF5.886413979915872
aF5.88056859067997
aF5.886413979915872
aF5.903377960197945
aF5.92979997894118
aF5.9630936648579596
aF6.0
aF6.03690633514204
aF6.070200021058819
aF6.096622039802054
aF6.113586020084128
aF6.11943140932003
aF6.113586020084129
aF6.096622039802055
aF6.070200021058819
aF6.03690633514204
aF6.0
aF5.96309366485796
aF5.929799978941181
aF5.903377960197945
aF5.886413979915872
aF5.88056859067997
aF5.886413979915872
aF5.903377960197945
aF5.929799978941181
aF5.9630936648579596
aF9.0
aF9.03690633514204
aF9.070200021058819
aF9.096622039802055
aF9.113586020084128
aF9.11943140932003
aF9.113586020084128
aF9.096622039802055
aF9.07020002105882
aF9.03690633514204
aF9.0
aF8.963093664857961
aF8.929799978941181
aF8.903377960197945
aF8.886413979915872
aF8.88056859067997
aF8.886413979915872
aF8.903377960197945
aF8.92979997894118
aF8.96309366485796
aF9.0
aF9.03690633514204
aF9.07020002105882
aF9.096622039802055
aF9.113586020084128
aF9.11943140932003
aF9.113586020084128
aF9.096622039802055
aF9.07020002105882
aF9.03690633514204
aF9.0
aF8.96309366485796
aF8.92979997894118
aF8.903377960197945
aF8.886413979915872
aF8.88056859067997
aF8.886413979915872
aF8.903377960197945
aF8.929799978941181
aF8.963093664857961
atp121
tp122
Rp123
s(I15
I9
tp124
g2
(g3
g4
(F8.961970277124585
(lp125
F5.0
aF5.0723368315071236
aF5.1170434520170005
aF5.1170434520170005
aF5.0723368315071236
aF5.0
aF4.9276631684928764
aF4.8829565479829995
aF4.8829565479829995
aF4.9276631684928764
aF5.0
aF5.0723368315071236
aF5.1170434520170005
aF5.1170434520170005
aF5.0723368315071236
aF5.0
aF4.9276631684928764
aF4.8829565479829995
aF4.8829565479829995
aF4.9276631684928764
aF5.0
aF5.0723368315071236
aF5.1170434520170005
aF5.1170434520170005
aF5.0723368315071236
aF5.0
aF4.9276631684928764
aF4.8829565479829995
aF4.8829565479829995
aF4.9276631684928764
aF5.0
aF5.0723368315071236
aF5.1170434520170005
aF5.1170434520170005
aF5.0723368315071236
aF5.0
aF4.9276631684928764
aF4.8829565479829995
aF4.8829565479829995
aF4.9276631684928764
aF5.0
aF5.0723368315071236
aF5.1170434520170005
aF5.1170434520170005
aF5.0723368315071236
aF5.0
aF4.9276631684928764
aF4.8829565479829995
aF4.8829565479829995
aF4.9276631684928764
aF5.0
aF5.0723368315071236
aF5.1170434520170005
aF5.1170434520170005
aF5.0723368315071236
aF5.000000000000001
aF4.9276631684928764
aF4.8829565479829995
aF4.8829565479829995
aF4.927663168492876
aF7.0
aF6.944128856317148
aF6.9004368929294255
aF6.878448387746158
aF6.8829565479829995
aF6.91297865353249
aF6.9619702771245855
aF7.01925188407737
aF7.0723368315071236
aF7.109653293546554
aF7.12306676839032
aF7.109653293546554
aF7.0723368315071236
aF7.019251884077369
aF6.9619702771245855
aF6.91297865353249
aF6.8829565479829995
aF6.878448387746158
aF6.9004368929294255
aF6.944128856317147
aF7.0
aF7.055871143682853
aF7.0995631070705745
aF7.121551612253842
aF7.1170434520170005
aF7.08702134646751
aF7.0380297228754145
aF6.980748115922631
aF6.9276631684928764
aF6.890346706453446
aF6.87693323160968
aF6.890346706453446
aF6.9276631684928764
aF6.98074811592263
aF7.0380297228754145
aF7.087021346467509
aF7.1170434520170005
aF7.121551612253842
aF7.0995631070705745
aF7.055871143682853
aF6.0
aF6.0380297228754145
aF6.0723368315071236
aF6.0995631070705745
aF6.1170434520170005
aF6.12306676839032
aF6.1170434520170005
aF6.0995631070705745
aF6.0723368315071236
aF6.0380297228754145
aF6.000000000000001
aF5.9619702771245855
aF5.9276631684928764
aF5.9004368929294255
aF5.8829565479829995
aF5.87693323160968
aF5.8829565479829995
aF5.9004368929294255
aF5.927663168492876
aF5.9619702771245855
aF6.0
aF6.0380297228754145
aF6.0723368315071236
aF6.0995631070705745
aF6.1170434520170005
aF6.12306676839032
aF6.1170434520170005
aF6.0995631070705745
aF6.0723368315071236
aF6.0380297228754145
aF6.0
aF5.9619702771245855
aF5.9276631684928764
aF5.9004368929294255
aF5.8829565479829995
aF5.87693323160968
aF5.8829565479829995
aF5.9004368929294255
aF5.9276631684928764
aF5.9619702771245855
aF6.0
aF6.0380297228754145
aF6.072336831507123
aF6.0995631070705745
aF6.1170434520170005
aF6.12306676839032
aF6.1170434520170005
aF6.0995631070705745
aF6.0723368315071236
aF6.0380297228754145
aF6.000000000000001
aF5.9619702771245855
aF5.9276631684928764
aF5.9004368929294255
aF5.8829565479829995
aF5.87693323160968
aF5.8829565479829995
aF5.9004368929294255
aF5.927663168492876
aF5.9619702771245855
aF6.0
aF6.0380297228754145
aF6.0723368315071236
aF6.0995631070705745
aF6.1170434520170005
aF6.12306676839032
aF6.1170434520170005
aF6.0995631070705745
aF6.0723368315071236
aF6.0380297228754145
aF6.0
aF5.961970277124586
aF5.9276631684928764
aF5.9004368929294255
aF5.8829565479829995
aF5.87693323160968
aF5.8829565479829995
aF5.9004368929294255
aF5.9276631684928764
aF5.961970277124585
aF9.0
aF9.038029722875415
aF9.072336831507123
aF9.099563107070574
aF9.117043452017
aF9.12306676839032
aF9.117043452017
aF9.099563107070574
aF9.072336831507124
aF9.038029722875415
aF9.0
aF8.961970277124585
aF8.927663168492877
aF8.900436892929426
aF8.882956547983
aF8.87693323160968
aF8.882956547983
aF8.900436892929426
aF8.927663168492876
aF8.961970277124585
aF9.0
aF9.038029722875415
aF9.072336831507124
aF9.099563107070574
aF9.117043452017
aF9.12306676839032
aF9.117043452017
aF9.099563107070574
aF9.072336831507124
aF9.038029722875415
aF9.0
aF8.961970277124585
aF8.927663168492876
aF8.900436892929426
aF8.882956547983
aF8.87693323160968
aF8.882956547983
aF8.900436892929426
aF8.927663168492877
aF8.961970277124585
atp126
tp127
Rp128
s(I13
I19
tp129
g2
(g3
g4
(F8.965088310927927
(lp130
F5.0
aF5.066405978773733
aF5.107447130712104
aF5.107447130712104
aF5.066405978773733
aF5.0
aF4.933594021226267
aF4.892552869287896
aF4.892552869287896
aF4.933594021226267
aF5.0
aF5.066405978773733
aF5.107447130712104
aF5.107447130712104
aF5.066405978773733
aF5.0
aF4.933594021226267
aF4.892552869287896
aF4.892552869287896
aF4.933594021226267
aF5.0
aF5.066405978773733
aF5.107447130712104
aF5.107447130712104
aF5.066405978773733
aF5.0
aF4.933594021226267
aF4.892552869287896
aF4.892552869287896
aF4.933594021226267
aF5.0
aF5.066405978773733
aF5.107447130712104
aF5.107447130712104
aF5.066405978773733
aF5.0
aF4.933594021226267
aF4.892552869287896
aF4.892552869287896
aF4.933594021226267
aF5.0
aF5.066405978773733
aF5.107447130712104
aF5.107447130712104
aF5.066405978773733
aF5.0
aF4.933594021226267
aF4.892552869287896
aF4.892552869287896
aF4.933594021226267
aF5.0
aF5.066405978773732
aF5.107447130712104
aF5.107447130712103
aF5.066405978773733
aF5.000000000000001
aF4.933594021226267
aF4.892552869287896
aF4.892552869287896
aF4.933594021226267
aF7.0
aF6.948709697339974
aF6.9086000114046415
aF6.888414330361613
aF6.892552869287896
aF6.920113480698777
aF6.965088310927926
aF7.017673433833915
aF7.066405978773732
aF7.100662886831105
aF7.1129765990465685
aF7.100662886831106
aF7.066405978773733
aF7.017673433833915
aF6.965088310927927
aF6.920113480698778
aF6.892552869287896
aF6.888414330361613
aF6.9086000114046415
aF6.948709697339973
aF7.0
aF7.051290302660026
aF7.091399988595358
aF7.111585669638387
aF7.107447130712104
aF7.079886519301223
aF7.034911689072074
aF6.982326566166086
aF6.933594021226267
aF6.899337113168895
aF6.8870234009534315
aF6.899337113168895
aF6.933594021226267
aF6.982326566166085
aF7.034911689072074
aF7.079886519301222
aF7.107447130712103
aF7.111585669638387
aF7.0913999885953585
aF7.051290302660026
aF6.0
aF6.034911689072074
aF6.066405978773732
aF6.091399988595358
aF6.107447130712104
aF6.1129765990465685
aF6.107447130712103
aF6.0913999885953585
aF6.066405978773733
aF6.034911689072074
aF6.000000000000001
aF5.965088310927927
aF5.933594021226267
aF5.9086000114046415
aF5.892552869287896
aF5.8870234009534315
aF5.892552869287896
aF5.9086000114046415
aF5.933594021226267
aF5.965088310927926
aF6.0
aF6.034911689072074
aF6.066405978773733
aF6.091399988595358
aF6.107447130712104
aF6.1129765990465685
aF6.107447130712104
aF6.0913999885953585
aF6.066405978773733
aF6.034911689072074
aF6.0
aF5.965088310927927
aF5.933594021226267
aF5.9086000114046415
aF5.892552869287897
aF5.8870234009534315
aF5.892552869287896
aF5.9086000114046415
aF5.933594021226267
aF5.965088310927926
aF6.0
aF6.034911689072074
aF6.066405978773732
aF6.091399988595358
aF6.107447130712103
aF6.1129765990465685
aF6.107447130712103
aF6.0913999885953585
aF6.066405978773733
aF6.034911689072074
aF6.000000000000001
aF5.965088310927927
aF5.933594021226267
aF5.9086000114046415
aF5.892552869287896
aF5.8870234009534315
aF5.892552869287896
aF5.9086000114046415
aF5.933594021226267
aF5.965088310927926
aF6.0
aF6.034911689072074
aF6.066405978773733
aF6.091399988595358
aF6.107447130712103
aF6.1129765990465685
aF6.107447130712104
aF6.0913999885953585
aF6.066405978773733
aF6.034911689072074
aF6.0
aF5.965088310927927
aF5.933594021226267
aF5.9086000114046415
aF5.892552869287897
aF5.8870234009534315
aF5.892552869287896
aF5.9086000114046415
aF5.933594021226267
aF5.965088310927926
aF9.0
aF9.034911689072073
aF9.066405978773732
aF9.091399988595358
aF9.107447130712103
aF9.112976599046569
aF9.107447130712103
aF9.091399988595358
aF9.066405978773734
aF9.034911689072073
aF9.0
aF8.965088310927927
aF8.933594021226268
aF8.908600011404642
aF8.892552869287897
aF8.887023400953431
aF8.892552869287897
aF8.908600011404642
aF8.933594021226266
aF8.965088310927925
aF9.0
aF9.034911689072073
aF9.066405978773732
aF9.091399988595358
aF9.107447130712103
aF9.112976599046569
aF9.107447130712103
aF9.091399988595358
aF9.066405978773734
aF9.034911689072073
aF9.0
aF8.965088310927925
aF8.933594021226266
aF8.908600011404642
aF8.892552869287897
aF8.887023400953431
aF8.892552869287897
aF8.908600011404642
aF8.933594021226268
aF8.965088310927927
atp131
tp132
Rp133
s(I18
I21
tp134
g2
(g3
g4
(F8.954915562271832
(lp135
F5.0
aF5.085755696569754
aF5.138755631778785
aF5.138755631778785
aF5.085755696569754
aF5.0
aF4.914244303430246
aF4.861244368221215
aF4.861244368221215
aF4.914244303430246
aF5.0
aF5.085755696569754
aF5.138755631778785
aF5.138755631778785
aF5.085755696569754
aF5.0
aF4.914244303430246
aF4.861244368221215
aF4.861244368221215
aF4.914244303430246
aF5.0
aF5.085755696569754
aF5.138755631778785
aF5.138755631778785
aF5.085755696569754
aF5.0
aF4.914244303430246
aF4.861244368221215
aF4.861244368221215
aF4.914244303430246
aF5.0
aF5.085755696569754
aF5.138755631778785
aF5.138755631778785
aF5.085755696569754
aF5.0
aF4.914244303430246
aF4.861244368221215
aF4.861244368221215
aF4.914244303430246
aF5.0
aF5.085755696569754
aF5.138755631778785
aF5.138755631778785
aF5.085755696569754
aF5.0
aF4.914244303430246
aF4.861244368221215
aF4.861244368221215
aF4.914244303430246
aF5.0
aF5.085755696569753
aF5.138755631778785
aF5.138755631778785
aF5.085755696569754
aF5.000000000000001
aF4.914244303430246
aF4.861244368221215
aF4.861244368221215
aF4.914244303430245
aF7.0
aF6.933764463484968
aF6.881967409663979
aF6.855899920402537
aF6.861244368221215
aF6.896835733231911
aF6.954915562271832
aF7.022823210457766
aF7.085755696569753
aF7.129994559802172
aF7.1458963052157065
aF7.129994559802173
aF7.085755696569754
aF7.022823210457765
aF6.954915562271832
aF6.896835733231912
aF6.861244368221215
aF6.855899920402537
aF6.881967409663979
aF6.933764463484968
aF7.0
aF7.066235536515032
aF7.11803259033602
aF7.144100079597463
aF7.138755631778785
aF7.103164266768089
aF7.045084437728168
aF6.977176789542235
aF6.914244303430246
aF6.870005440197828
aF6.8541036947842935
aF6.870005440197828
aF6.914244303430246
aF6.977176789542234
aF7.045084437728168
aF7.103164266768088
aF7.138755631778785
aF7.144100079597463
aF7.118032590336021
aF7.066235536515032
aF6.0
aF6.045084437728168
aF6.085755696569753
aF6.11803259033602
aF6.138755631778785
aF6.1458963052157065
aF6.138755631778785
aF6.118032590336021
aF6.085755696569754
aF6.045084437728168
aF6.000000000000001
aF5.954915562271832
aF5.914244303430246
aF5.881967409663979
aF5.861244368221215
aF5.8541036947842935
aF5.861244368221215
aF5.881967409663979
aF5.914244303430245
aF5.9549155622718315
aF6.0
aF6.045084437728168
aF6.085755696569754
aF6.11803259033602
aF6.138755631778785
aF6.1458963052157065
aF6.138755631778785
aF6.118032590336021
aF6.085755696569754
aF6.045084437728168
aF6.0
aF5.954915562271833
aF5.914244303430246
aF5.881967409663979
aF5.861244368221216
aF5.8541036947842935
aF5.861244368221215
aF5.881967409663979
aF5.914244303430246
aF5.9549155622718315
aF6.0
aF6.045084437728168
aF6.085755696569753
aF6.11803259033602
aF6.138755631778785
aF6.1458963052157065
aF6.138755631778785
aF6.118032590336021
aF6.085755696569754
aF6.045084437728168
aF6.000000000000001
aF5.954915562271833
aF5.914244303430246
aF5.881967409663979
aF5.861244368221215
aF5.8541036947842935
aF5.861244368221215
aF5.881967409663979
aF5.914244303430245
aF5.9549155622718315
aF6.0
aF6.045084437728168
aF6.085755696569754
aF6.11803259033602
aF6.138755631778785
aF6.1458963052157065
aF6.138755631778785
aF6.118032590336021
aF6.085755696569754
aF6.045084437728168
aF6.0
aF5.954915562271833
aF5.914244303430246
aF5.881967409663979
aF5.861244368221216
aF5.8541036947842935
aF5.861244368221215
aF5.881967409663979
aF5.914244303430246
aF5.9549155622718315
aF9.0
aF9.045084437728168
aF9.085755696569754
aF9.118032590336021
aF9.138755631778784
aF9.145896305215707
aF9.138755631778784
aF9.118032590336021
aF9.085755696569754
aF9.045084437728168
aF9.0
aF8.954915562271832
aF8.914244303430246
aF8.881967409663979
aF8.861244368221216
aF8.854103694784293
aF8.861244368221216
aF8.881967409663979
aF8.914244303430246
aF8.954915562271832
aF9.0
aF9.045084437728168
aF9.085755696569754
aF9.118032590336021
aF9.138755631778784
aF9.145896305215707
aF9.138755631778785
aF9.118032590336021
aF9.085755696569754
aF9.045084437728168
aF9.0
aF8.954915562271832
aF8.914244303430246
aF8.88196740966398
aF8.861244368221216
aF8.854103694784293
aF8.861244368221216
aF8.881967409663979
aF8.914244303430246
aF8.954915562271832
atp136
tp137
Rp138
s(I12
I22
tp139
g2
(g3
g4
(F8.958650666876995
(lp140
F5.0
aF5.078651105422186
aF5.127260161825848
aF5.127260161825848
aF5.078651105422186
aF5.0
aF4.921348894577814
aF4.872739838174152
aF4.872739838174152
aF4.921348894577814
aF5.0
aF5.078651105422186
aF5.127260161825848
aF5.127260161825848
aF5.078651105422186
aF5.0
aF4.921348894577814
aF4.872739838174152
aF4.872739838174152
aF4.921348894577814
aF5.0
aF5.078651105422186
aF5.127260161825848
aF5.127260161825848
aF5.078651105422186
aF5.0
aF4.921348894577814
aF4.872739838174152
aF4.872739838174152
aF4.921348894577814
aF5.0
aF5.078651105422186
aF5.127260161825848
aF5.127260161825848
aF5.078651105422186
aF5.0
aF4.921348894577814
aF4.872739838174152
aF4.872739838174152
aF4.921348894577814
aF5.0
aF5.078651105422186
aF5.127260161825848
aF5.127260161825848
aF5.078651105422186
aF5.0
aF4.921348894577814
aF4.872739838174152
aF4.872739838174152
aF4.921348894577814
aF5.0
aF5.0786511054221855
aF5.127260161825848
aF5.127260161825848
aF5.078651105422186
aF5.000000000000001
aF4.921348894577814
aF4.872739838174152
aF4.872739838174152
aF4.921348894577813
aF7.0
aF6.9392518704468635
aF6.891746040471831
aF6.8678381611354915
aF6.872739838174152
aF6.9053825699523115
aF6.958650666876994
aF7.020932378880817
aF7.0786511054221855
aF7.119224917250773
aF7.1338092528103285
aF7.119224917250774
aF7.078651105422186
aF7.020932378880817
aF6.958650666876995
aF6.9053825699523115
aF6.872739838174152
aF6.8678381611354915
aF6.891746040471831
aF6.9392518704468635
aF7.0
aF7.0607481295531365
aF7.108253959528169
aF7.1321618388645085
aF7.127260161825848
aF7.0946174300476885
aF7.041349333123005
aF6.979067621119184
aF6.921348894577814
aF6.880775082749227
aF6.8661907471896715
aF6.880775082749227
aF6.921348894577814
aF6.979067621119183
aF7.041349333123005
aF7.094617430047688
aF7.127260161825848
aF7.1321618388645085
aF7.10825395952817
aF7.0607481295531365
aF6.0
aF6.041349333123005
aF6.0786511054221855
aF6.108253959528169
aF6.127260161825848
aF6.1338092528103285
aF6.127260161825848
aF6.108253959528169
aF6.078651105422186
aF6.041349333123005
aF6.000000000000001
aF5.958650666876995
aF5.921348894577814
aF5.891746040471831
aF5.872739838174152
aF5.8661907471896715
aF5.872739838174152
aF5.891746040471831
aF5.921348894577813
aF5.958650666876994
aF6.0
aF6.041349333123005
aF6.078651105422186
aF6.108253959528169
aF6.127260161825848
aF6.1338092528103285
aF6.127260161825848
aF6.10825395952817
aF6.078651105422186
aF6.041349333123005
aF6.0
aF5.958650666876995
aF5.921348894577814
aF5.891746040471831
aF5.872739838174152
aF5.8661907471896715
aF5.872739838174152
aF5.891746040471831
aF5.921348894577814
aF5.958650666876994
aF6.0
aF6.041349333123005
aF6.0786511054221855
aF6.108253959528169
aF6.127260161825848
aF6.1338092528103285
aF6.127260161825848
aF6.10825395952817
aF6.078651105422186
aF6.041349333123005
aF6.000000000000001
aF5.958650666876995
aF5.921348894577814
aF5.891746040471831
aF5.872739838174152
aF5.8661907471896715
aF5.872739838174152
aF5.891746040471831
aF5.921348894577813
aF5.958650666876994
aF6.0
aF6.041349333123005
aF6.078651105422186
aF6.108253959528169
aF6.127260161825848
aF6.1338092528103285
aF6.127260161825848
aF6.10825395952817
aF6.078651105422186
aF6.041349333123005
aF6.0
aF5.958650666876995
aF5.921348894577814
aF5.891746040471831
aF5.872739838174152
aF5.8661907471896715
aF5.872739838174152
aF5.891746040471831
aF5.921348894577814
aF5.958650666876994
aF9.0
aF9.041349333123005
aF9.078651105422185
aF9.108253959528168
aF9.127260161825848
aF9.133809252810329
aF9.127260161825848
aF9.10825395952817
aF9.078651105422187
aF9.041349333123005
aF9.0
aF8.958650666876995
aF8.921348894577815
aF8.89174604047183
aF8.872739838174152
aF8.866190747189671
aF8.872739838174152
aF8.89174604047183
aF8.921348894577813
aF8.958650666876995
aF9.0
aF9.041349333123005
aF9.078651105422187
aF9.108253959528168
aF9.127260161825848
aF9.133809252810329
aF9.127260161825848
aF9.10825395952817
aF9.078651105422187
aF9.041349333123005
aF9.0
aF8.958650666876995
aF8.921348894577813
aF8.891746040471832
aF8.872739838174152
aF8.866190747189671
aF8.872739838174152
aF8.89174604047183
aF8.921348894577815
aF8.958650666876995
atp141
tp142
Rp143
s(I2
I7
tp144
g2
(g3
g4
(F8.964804157377142
(lp145
F5.0
aF5.066946470945937
aF5.108321665417384
aF5.108321665417384
aF5.066946470945937
aF5.0
aF4.933053529054063
aF4.891678334582616
aF4.891678334582616
aF4.933053529054063
aF5.0
aF5.066946470945937
aF5.108321665417384
aF5.108321665417384
aF5.066946470945937
aF5.0
aF4.933053529054063
aF4.8916783345826165
aF4.891678334582616
aF4.933053529054063
aF5.0
aF5.066946470945937
aF5.1083216654173835
aF5.108321665417384
aF5.066946470945937
aF5.0
aF4.933053529054063
aF4.8916783345826165
aF4.891678334582616
aF4.933053529054063
aF5.0
aF5.066946470945937
aF5.1083216654173835
aF5.108321665417384
aF5.066946470945937
aF5.0
aF4.933053529054063
aF4.8916783345826165
aF4.891678334582616
aF4.933053529054063
aF5.0
aF5.066946470945937
aF5.1083216654173835
aF5.108321665417384
aF5.066946470945937
aF5.0
aF4.933053529054063
aF4.8916783345826165
aF4.891678334582616
aF4.933053529054063
aF5.0
aF5.066946470945937
aF5.1083216654173835
aF5.1083216654173835
aF5.066946470945937
aF5.000000000000001
aF4.933053529054063
aF4.891678334582616
aF4.891678334582616
aF4.933053529054062
aF7.0
aF6.948292234822146
aF6.907856087750663
aF6.887506111221056
aF6.891678334582616
aF6.919463267583267
aF6.964804157377141
aF7.0178172816141835
aF7.066946470945937
aF7.101482203154251
aF7.113896139252956
aF7.101482203154251
aF7.066946470945937
aF7.0178172816141835
aF6.9648041573771415
aF6.919463267583268
aF6.891678334582616
aF6.887506111221056
aF6.907856087750663
aF6.948292234822145
aF7.0
aF7.051707765177855
aF7.092143912249337
aF7.112493888778944
aF7.108321665417384
aF7.080536732416733
aF7.0351958426228585
aF6.9821827183858165
aF6.933053529054063
aF6.898517796845749
aF6.886103860747044
aF6.898517796845749
aF6.933053529054063
aF6.982182718385816
aF7.035195842622859
aF7.080536732416732
aF7.1083216654173835
aF7.112493888778944
aF7.0921439122493375
aF7.051707765177855
aF6.0
aF6.035195842622859
aF6.066946470945937
aF6.092143912249337
aF6.1083216654173835
aF6.113896139252956
aF6.1083216654173835
aF6.0921439122493375
aF6.066946470945937
aF6.0351958426228585
aF6.000000000000001
aF5.9648041573771415
aF5.933053529054063
aF5.907856087750663
aF5.891678334582616
aF5.886103860747044
aF5.891678334582616
aF5.907856087750663
aF5.933053529054062
aF5.964804157377141
aF6.0
aF6.035195842622859
aF6.066946470945938
aF6.092143912249337
aF6.1083216654173835
aF6.113896139252956
aF6.108321665417384
aF6.0921439122493375
aF6.066946470945937
aF6.0351958426228585
aF6.0
aF5.9648041573771415
aF5.933053529054063
aF5.907856087750663
aF5.8916783345826165
aF5.886103860747044
aF5.891678334582616
aF5.907856087750663
aF5.933053529054063
aF5.964804157377141
aF6.0
aF6.035195842622859
aF6.066946470945937
aF6.092143912249337
aF6.1083216654173835
aF6.113896139252956
aF6.1083216654173835
aF6.0921439122493375
aF6.066946470945938
aF6.035195842622859
aF6.000000000000001
aF5.9648041573771415
aF5.933053529054063
aF5.907856087750663
aF5.891678334582616
aF5.886103860747044
aF5.891678334582616
aF5.907856087750663
aF5.933053529054062
aF5.964804157377141
aF6.0
aF6.0351958426228585
aF6.066946470945937
aF6.092143912249337
aF6.1083216654173835
aF6.113896139252956
aF6.108321665417384
aF6.0921439122493375
aF6.066946470945938
aF6.035195842622859
aF6.0
aF5.9648041573771415
aF5.933053529054063
aF5.907856087750663
aF5.8916783345826165
aF5.886103860747044
aF5.891678334582616
aF5.907856087750663
aF5.933053529054063
aF5.964804157377141
aF9.0
aF9.035195842622858
aF9.066946470945936
aF9.092143912249337
aF9.108321665417384
aF9.113896139252956
aF9.108321665417384
aF9.092143912249337
aF9.066946470945938
aF9.035195842622858
aF9.0
aF8.964804157377142
aF8.933053529054062
aF8.907856087750663
aF8.891678334582616
aF8.886103860747044
aF8.891678334582616
aF8.907856087750663
aF8.933053529054062
aF8.96480415737714
aF9.0
aF9.035195842622858
aF9.066946470945938
aF9.092143912249337
aF9.108321665417384
aF9.113896139252956
aF9.108321665417384
aF9.092143912249337
aF9.066946470945938
aF9.035195842622858
aF9.0
aF8.964804157377142
aF8.933053529054062
aF8.907856087750664
aF8.891678334582616
aF8.886103860747044
aF8.891678334582616
aF8.907856087750663
aF8.933053529054062
aF8.964804157377142
atp146
tp147
Rp148
s(I16
I5
tp149
g2
(g3
g4
(F8.960190214943344
(lp150
F5.0
aF5.0757227109808865
aF5.122521920087359
aF5.122521920087359
aF5.0757227109808865
aF5.0
aF4.9242772890191135
aF4.877478079912641
aF4.877478079912641
aF4.9242772890191135
aF5.0
aF5.0757227109808865
aF5.122521920087359
aF5.122521920087359
aF5.0757227109808865
aF5.0
aF4.9242772890191135
aF4.877478079912641
aF4.877478079912641
aF4.9242772890191135
aF5.0
aF5.0757227109808865
aF5.122521920087359
aF5.122521920087359
aF5.0757227109808865
aF5.0
aF4.9242772890191135
aF4.877478079912641
aF4.877478079912641
aF4.9242772890191135
aF5.0
aF5.0757227109808865
aF5.122521920087359
aF5.122521920087359
aF5.0757227109808865
aF5.0
aF4.9242772890191135
aF4.877478079912641
aF4.877478079912641
aF4.9242772890191135
aF5.0
aF5.0757227109808865
aF5.122521920087359
aF5.122521920087359
aF5.0757227109808865
aF5.0
aF4.9242772890191135
aF4.877478079912641
aF4.877478079912641
aF4.9242772890191135
aF5.0
aF5.075722710980886
aF5.122521920087359
aF5.122521920087359
aF5.0757227109808865
aF5.000000000000001
aF4.9242772890191135
aF4.877478079912641
aF4.877478079912641
aF4.9242772890191135
aF7.0
aF6.941513688433374
aF6.895776629636844
aF6.872758905633682
aF6.877478079912641
aF6.908905434058473
aF6.960190214943343
aF7.02015300951749
aF7.075722710980886
aF7.114785849508909
aF7.128827170612998
aF7.114785849508909
aF7.0757227109808865
aF7.02015300951749
aF6.960190214943343
aF6.9089054340584735
aF6.877478079912641
aF6.872758905633682
aF6.895776629636845
aF6.941513688433373
aF7.0
aF7.058486311566627
aF7.104223370363155
aF7.127241094366318
aF7.122521920087359
aF7.091094565941527
aF7.039809785056657
aF6.97984699048251
aF6.9242772890191135
aF6.885214150491091
aF6.871172829387002
aF6.885214150491091
aF6.9242772890191135
aF6.979846990482509
aF7.039809785056657
aF7.0910945659415265
aF7.122521920087359
aF7.127241094366318
aF7.104223370363156
aF7.058486311566627
aF6.0
aF6.039809785056657
aF6.075722710980886
aF6.104223370363155
aF6.122521920087359
aF6.128827170612998
aF6.122521920087359
aF6.104223370363156
aF6.0757227109808865
aF6.039809785056657
aF6.000000000000001
aF5.960190214943343
aF5.9242772890191135
aF5.895776629636844
aF5.877478079912641
aF5.871172829387002
aF5.877478079912641
aF5.895776629636845
aF5.9242772890191135
aF5.960190214943342
aF6.0
aF6.039809785056657
aF6.0757227109808865
aF6.104223370363155
aF6.122521920087359
aF6.128827170612998
aF6.122521920087359
aF6.104223370363156
aF6.0757227109808865
aF6.039809785056657
aF6.0
aF5.960190214943343
aF5.9242772890191135
aF5.895776629636844
aF5.877478079912641
aF5.871172829387002
aF5.877478079912641
aF5.895776629636845
aF5.9242772890191135
aF5.960190214943342
aF6.0
aF6.039809785056657
aF6.075722710980886
aF6.104223370363155
aF6.122521920087359
aF6.128827170612998
aF6.122521920087359
aF6.104223370363156
aF6.0757227109808865
aF6.039809785056657
aF6.000000000000001
aF5.960190214943343
aF5.9242772890191135
aF5.895776629636845
aF5.877478079912641
aF5.871172829387002
aF5.877478079912641
aF5.895776629636844
aF5.9242772890191135
aF5.960190214943342
aF6.0
aF6.039809785056657
aF6.0757227109808865
aF6.104223370363155
aF6.122521920087359
aF6.128827170612998
aF6.122521920087359
aF6.104223370363156
aF6.0757227109808865
aF6.039809785056657
aF6.0
aF5.960190214943343
aF5.9242772890191135
aF5.895776629636845
aF5.877478079912641
aF5.871172829387002
aF5.877478079912641
aF5.895776629636844
aF5.9242772890191135
aF5.960190214943342
aF9.0
aF9.039809785056658
aF9.075722710980886
aF9.104223370363156
aF9.122521920087358
aF9.128827170612997
aF9.122521920087358
aF9.104223370363156
aF9.075722710980887
aF9.039809785056658
aF9.0
aF8.960190214943344
aF8.924277289019114
aF8.895776629636844
aF8.877478079912642
aF8.871172829387003
aF8.877478079912642
aF8.895776629636844
aF8.924277289019113
aF8.960190214943342
aF9.0
aF9.039809785056656
aF9.075722710980886
aF9.104223370363156
aF9.122521920087358
aF9.128827170612997
aF9.12252192008736
aF9.104223370363156
aF9.075722710980887
aF9.039809785056658
aF9.0
aF8.960190214943342
aF8.924277289019113
aF8.895776629636845
aF8.877478079912642
aF8.871172829387003
aF8.877478079912642
aF8.895776629636844
aF8.924277289019114
aF8.960190214943344
atp151
tp152
Rp153
s(I13
I14
tp154
g2
(g3
g4
(F8.947473618583679
(lp155
F5.0
aF5.099911114646794
aF5.1616595793524
aF5.1616595793524
aF5.099911114646794
aF5.0
aF4.900088885353206
aF4.8383404206476
aF4.8383404206476
aF4.900088885353206
aF5.0
aF5.099911114646794
aF5.1616595793524
aF5.1616595793524
aF5.099911114646794
aF5.0
aF4.900088885353206
aF4.8383404206476
aF4.8383404206476
aF4.900088885353206
aF5.0
aF5.099911114646794
aF5.1616595793524
aF5.1616595793524
aF5.099911114646794
aF5.0
aF4.900088885353206
aF4.8383404206476
aF4.8383404206476
aF4.900088885353206
aF5.0
aF5.099911114646794
aF5.1616595793524
aF5.1616595793524
aF5.099911114646794
aF5.0
aF4.900088885353206
aF4.8383404206476
aF4.8383404206476
aF4.900088885353206
aF5.0
aF5.099911114646794
aF5.1616595793524
aF5.1616595793524
aF5.099911114646794
aF5.0
aF4.900088885353206
aF4.8383404206476
aF4.8383404206476
aF4.900088885353206
aF5.0
aF5.099911114646793
aF5.1616595793524
aF5.1616595793524
aF5.099911114646794
aF5.000000000000001
aF4.900088885353206
aF4.8383404206476
aF4.8383404206476
aF4.900088885353205
aF7.0
aF6.9228311756868255
aF6.86248414814603
aF6.832113781950758
aF6.8383404206476
aF6.87980673824817
aF6.947473618583678
aF7.026590564683932
aF7.099911114646793
aF7.151452345294519
aF7.169978940875297
aF7.151452345294519
aF7.099911114646794
aF7.026590564683932
aF6.947473618583679
aF6.8798067382481705
aF6.8383404206476
aF6.832113781950758
aF6.86248414814603
aF6.922831175686825
aF7.0
aF7.077168824313175
aF7.13751585185397
aF7.167886218049242
aF7.161659579352401
aF7.12019326175183
aF7.052526381416321
aF6.973409435316069
aF6.900088885353206
aF6.848547654705481
aF6.830021059124703
aF6.848547654705481
aF6.900088885353206
aF6.973409435316067
aF7.052526381416321
aF7.1201932617518295
aF7.1616595793524
aF7.167886218049242
aF7.13751585185397
aF7.077168824313175
aF6.0
aF6.052526381416321
aF6.099911114646793
aF6.13751585185397
aF6.1616595793524
aF6.169978940875297
aF6.1616595793524
aF6.13751585185397
aF6.099911114646794
aF6.052526381416321
aF6.000000000000001
aF5.947473618583679
aF5.900088885353206
aF5.86248414814603
aF5.8383404206476
aF5.830021059124703
aF5.8383404206476
aF5.86248414814603
aF5.900088885353205
aF5.947473618583678
aF6.0
aF6.052526381416321
aF6.099911114646794
aF6.13751585185397
aF6.1616595793524
aF6.169978940875297
aF6.161659579352401
aF6.13751585185397
aF6.099911114646794
aF6.052526381416321
aF6.0
aF5.947473618583679
aF5.900088885353206
aF5.86248414814603
aF5.8383404206476
aF5.830021059124703
aF5.8383404206476
aF5.86248414814603
aF5.900088885353206
aF5.947473618583678
aF6.0
aF6.052526381416321
aF6.099911114646793
aF6.13751585185397
aF6.1616595793524
aF6.169978940875297
aF6.1616595793524
aF6.13751585185397
aF6.099911114646794
aF6.052526381416321
aF6.000000000000001
aF5.947473618583679
aF5.900088885353206
aF5.86248414814603
aF5.8383404206476
aF5.830021059124703
aF5.8383404206476
aF5.86248414814603
aF5.900088885353205
aF5.947473618583678
aF6.0
aF6.052526381416321
aF6.099911114646794
aF6.13751585185397
aF6.1616595793524
aF6.169978940875297
aF6.161659579352401
aF6.13751585185397
aF6.099911114646794
aF6.052526381416321
aF6.0
aF5.947473618583679
aF5.900088885353206
aF5.86248414814603
aF5.8383404206476
aF5.830021059124703
aF5.8383404206476
aF5.86248414814603
aF5.900088885353206
aF5.947473618583678
aF9.0
aF9.052526381416321
aF9.099911114646794
aF9.13751585185397
aF9.161659579352401
aF9.169978940875298
aF9.161659579352401
aF9.137515851853971
aF9.099911114646794
aF9.052526381416321
aF9.000000000000002
aF8.947473618583679
aF8.900088885353206
aF8.86248414814603
aF8.838340420647599
aF8.830021059124702
aF8.838340420647599
aF8.86248414814603
aF8.900088885353204
aF8.947473618583677
aF9.0
aF9.052526381416321
aF9.099911114646794
aF9.13751585185397
aF9.1616595793524
aF9.169978940875298
aF9.161659579352401
aF9.137515851853971
aF9.099911114646794
aF9.052526381416321
aF9.0
aF8.947473618583679
aF8.900088885353206
aF8.86248414814603
aF8.8383404206476
aF8.830021059124702
aF8.838340420647599
aF8.862484148146029
aF8.900088885353206
aF8.947473618583679
atp156
tp157
Rp158
s(I11
I3
tp159
g2
(g3
g4
(F8.94142097802019
(lp160
F5.0
aF5.1114239211441905
aF5.180287691571088
aF5.180287691571088
aF5.1114239211441905
aF5.0
aF4.8885760788558095
aF4.819712308428912
aF4.819712308428912
aF4.8885760788558095
aF5.0
aF5.1114239211441905
aF5.180287691571088
aF5.180287691571088
aF5.1114239211441905
aF5.0
aF4.8885760788558095
aF4.819712308428912
aF4.819712308428912
aF4.8885760788558095
aF5.0
aF5.1114239211441905
aF5.180287691571088
aF5.180287691571088
aF5.1114239211441905
aF5.0
aF4.8885760788558095
aF4.819712308428912
aF4.819712308428912
aF4.8885760788558095
aF5.0
aF5.1114239211441905
aF5.180287691571088
aF5.180287691571088
aF5.1114239211441905
aF5.0
aF4.8885760788558095
aF4.819712308428912
aF4.819712308428912
aF4.8885760788558095
aF5.0
aF5.1114239211441905
aF5.180287691571088
aF5.180287691571088
aF5.1114239211441905
aF5.0
aF4.8885760788558095
aF4.819712308428912
aF4.819712308428912
aF4.8885760788558095
aF5.0
aF5.11142392114419
aF5.180287691571088
aF5.180287691571088
aF5.1114239211441905
aF5.000000000000001
aF4.8885760788558095
aF4.819712308428912
aF4.819712308428912
aF4.888576078855809
aF7.0
aF6.913938974402814
aF6.84663812942913
aF6.812768171116432
aF6.819712308428912
aF6.865956810042167
aF6.941420978020189
aF7.029654608428663
aF7.11142392114419
aF7.168904272951584
aF7.189565697182119
aF7.168904272951585
aF7.1114239211441905
aF7.029654608428663
aF6.941420978020191
aF6.865956810042168
aF6.819712308428912
aF6.812768171116432
aF6.84663812942913
aF6.9139389744028135
aF7.0
aF7.0860610255971865
aF7.153361870570869
aF7.187231828883568
aF7.180287691571089
aF7.134043189957833
aF7.05857902197981
aF6.970345391571337
aF6.8885760788558095
aF6.831095727048415
aF6.810434302817881
aF6.831095727048415
aF6.8885760788558095
aF6.970345391571336
aF7.05857902197981
aF7.134043189957832
aF7.180287691571088
aF7.187231828883568
aF7.15336187057087
aF7.0860610255971865
aF6.0
aF6.05857902197981
aF6.11142392114419
aF6.153361870570869
aF6.180287691571088
aF6.189565697182119
aF6.180287691571088
aF6.15336187057087
aF6.1114239211441905
aF6.05857902197981
aF6.000000000000001
aF5.941420978020191
aF5.8885760788558095
aF5.84663812942913
aF5.819712308428912
aF5.810434302817881
aF5.819712308428912
aF5.84663812942913
aF5.888576078855809
aF5.941420978020189
aF6.0
aF6.05857902197981
aF6.111423921144191
aF6.153361870570869
aF6.180287691571088
aF6.189565697182119
aF6.180287691571089
aF6.15336187057087
aF6.1114239211441905
aF6.05857902197981
aF6.0
aF5.941420978020191
aF5.8885760788558095
aF5.84663812942913
aF5.819712308428912
aF5.810434302817881
aF5.819712308428912
aF5.84663812942913
aF5.8885760788558095
aF5.941420978020189
aF6.0
aF6.05857902197981
aF6.11142392114419
aF6.153361870570869
aF6.180287691571088
aF6.189565697182119
aF6.180287691571088
aF6.15336187057087
aF6.1114239211441905
aF6.05857902197981
aF6.000000000000001
aF5.941420978020191
aF5.8885760788558095
aF5.84663812942913
aF5.819712308428912
aF5.810434302817881
aF5.819712308428912
aF5.84663812942913
aF5.888576078855809
aF5.941420978020189
aF6.0
aF6.05857902197981
aF6.1114239211441905
aF6.153361870570869
aF6.180287691571088
aF6.189565697182119
aF6.180287691571089
aF6.15336187057087
aF6.111423921144191
aF6.05857902197981
aF6.0
aF5.941420978020191
aF5.8885760788558095
aF5.84663812942913
aF5.819712308428912
aF5.810434302817881
aF5.819712308428912
aF5.84663812942913
aF5.8885760788558095
aF5.941420978020189
aF9.0
aF9.05857902197981
aF9.11142392114419
aF9.153361870570869
aF9.180287691571088
aF9.18956569718212
aF9.180287691571088
aF9.15336187057087
aF9.11142392114419
aF9.05857902197981
aF9.000000000000002
aF8.94142097802019
aF8.88857607885581
aF8.846638129429131
aF8.819712308428912
aF8.81043430281788
aF8.819712308428912
aF8.846638129429131
aF8.888576078855808
aF8.94142097802019
aF9.0
aF9.05857902197981
aF9.11142392114419
aF9.153361870570869
aF9.180287691571088
aF9.18956569718212
aF9.180287691571088
aF9.15336187057087
aF9.11142392114419
aF9.05857902197981
aF9.0
aF8.94142097802019
aF8.88857607885581
aF8.846638129429131
aF8.819712308428912
aF8.81043430281788
aF8.819712308428912
aF8.846638129429131
aF8.88857607885581
aF8.94142097802019
atp161
tp162
Rp163
s(I2
I4
tp164
g2
(g3
g4
(F8.967579279331254
(lp165
F5.0
aF5.0616678753099915
aF5.099780718265556
aF5.099780718265556
aF5.0616678753099915
aF5.0
aF4.9383321246900085
aF4.900219281734444
aF4.900219281734444
aF4.9383321246900085
aF5.0
aF5.0616678753099915
aF5.099780718265556
aF5.099780718265556
aF5.0616678753099915
aF5.0
aF4.9383321246900085
aF4.900219281734444
aF4.900219281734444
aF4.9383321246900085
aF5.0
aF5.0616678753099915
aF5.099780718265556
aF5.099780718265556
aF5.0616678753099915
aF5.0
aF4.9383321246900085
aF4.900219281734444
aF4.900219281734444
aF4.9383321246900085
aF5.0
aF5.0616678753099915
aF5.099780718265556
aF5.099780718265557
aF5.0616678753099915
aF5.0
aF4.9383321246900085
aF4.900219281734444
aF4.900219281734443
aF4.9383321246900085
aF5.0
aF5.0616678753099915
aF5.099780718265556
aF5.099780718265557
aF5.0616678753099915
aF5.0
aF4.9383321246900085
aF4.900219281734444
aF4.900219281734443
aF4.9383321246900085
aF5.0
aF5.0616678753099915
aF5.099780718265556
aF5.099780718265556
aF5.0616678753099915
aF5.000000000000001
aF4.9383321246900085
aF4.900219281734443
aF4.900219281734443
aF4.9383321246900085
aF7.0
aF6.952369288918586
aF6.9151214513494565
aF6.896376029858867
aF6.900219281734443
aF6.925813428215507
aF6.967579279331254
aF7.01641242451501
aF7.0616678753099915
aF7.093480533953064
aF7.104915655963595
aF7.093480533953064
aF7.0616678753099915
aF7.01641242451501
aF6.967579279331255
aF6.925813428215508
aF6.900219281734443
aF6.896376029858867
aF6.9151214513494565
aF6.952369288918585
aF7.0
aF7.047630711081415
aF7.084878548650543
aF7.103623970141133
aF7.099780718265557
aF7.074186571784493
aF7.032420720668746
aF6.98358757548499
aF6.9383321246900085
aF6.906519466046936
aF6.895084344036405
aF6.906519466046936
aF6.9383321246900085
aF6.98358757548499
aF7.032420720668746
aF7.074186571784492
aF7.099780718265556
aF7.103623970141133
aF7.0848785486505435
aF7.047630711081415
aF6.0
aF6.032420720668746
aF6.0616678753099915
aF6.084878548650543
aF6.099780718265556
aF6.104915655963595
aF6.099780718265556
aF6.0848785486505435
aF6.0616678753099915
aF6.032420720668746
aF6.000000000000001
aF5.967579279331255
aF5.9383321246900085
aF5.9151214513494565
aF5.900219281734443
aF5.895084344036405
aF5.900219281734443
aF5.9151214513494565
aF5.9383321246900085
aF5.967579279331254
aF6.0
aF6.032420720668746
aF6.0616678753099915
aF6.084878548650543
aF6.099780718265556
aF6.104915655963595
aF6.099780718265557
aF6.0848785486505435
aF6.0616678753099915
aF6.032420720668746
aF6.0
aF5.967579279331255
aF5.9383321246900085
aF5.9151214513494565
aF5.900219281734444
aF5.895084344036405
aF5.900219281734443
aF5.9151214513494565
aF5.9383321246900085
aF5.967579279331254
aF6.0
aF6.032420720668746
aF6.0616678753099915
aF6.084878548650543
aF6.099780718265556
aF6.104915655963595
aF6.099780718265556
aF6.0848785486505435
aF6.0616678753099915
aF6.032420720668746
aF6.000000000000001
aF5.967579279331255
aF5.9383321246900085
aF5.9151214513494565
aF5.900219281734443
aF5.895084344036405
aF5.900219281734443
aF5.9151214513494565
aF5.938332124690008
aF5.967579279331254
aF6.0
aF6.032420720668746
aF6.0616678753099915
aF6.084878548650543
aF6.099780718265556
aF6.104915655963595
aF6.099780718265557
aF6.0848785486505435
aF6.0616678753099915
aF6.032420720668746
aF6.0
aF5.967579279331255
aF5.9383321246900085
aF5.9151214513494565
aF5.900219281734444
aF5.895084344036405
aF5.900219281734443
aF5.9151214513494565
aF5.9383321246900085
aF5.967579279331254
aF9.0
aF9.032420720668746
aF9.061667875309992
aF9.084878548650543
aF9.099780718265556
aF9.104915655963595
aF9.099780718265556
aF9.084878548650543
aF9.061667875309992
aF9.032420720668746
aF9.0
aF8.967579279331254
aF8.938332124690008
aF8.915121451349457
aF8.900219281734444
aF8.895084344036405
aF8.900219281734444
aF8.915121451349457
aF8.938332124690008
aF8.967579279331254
aF9.0
aF9.032420720668746
aF9.061667875309992
aF9.084878548650543
aF9.099780718265556
aF9.104915655963595
aF9.099780718265556
aF9.084878548650543
aF9.061667875309992
aF9.032420720668746
aF9.0
aF8.967579279331254
aF8.938332124690008
aF8.915121451349458
aF8.900219281734444
aF8.895084344036405
aF8.900219281734444
aF8.915121451349457
aF8.938332124690008
aF8.967579279331254
atp166
tp167
Rp168
s(I1
I7
tp169
g2
(g3
g4
(F8.9564493743859
(lp170
F5.0
aF5.082838212558045
aF5.134035043486205
aF5.134035043486205
aF5.082838212558045
aF5.0
aF4.917161787441955
aF4.865964956513795
aF4.865964956513795
aF4.917161787441955
aF5.0
aF5.082838212558045
aF5.134035043486205
aF5.134035043486205
aF5.082838212558045
aF5.0
aF4.917161787441955
aF4.865964956513796
aF4.865964956513795
aF4.917161787441955
aF5.0
aF5.082838212558045
aF5.134035043486204
aF5.134035043486205
aF5.082838212558045
aF5.0
aF4.917161787441955
aF4.865964956513796
aF4.865964956513795
aF4.917161787441955
aF5.0
aF5.082838212558045
aF5.134035043486204
aF5.134035043486205
aF5.082838212558045
aF5.0
aF4.917161787441955
aF4.865964956513796
aF4.865964956513795
aF4.917161787441955
aF5.0
aF5.082838212558045
aF5.134035043486204
aF5.134035043486205
aF5.082838212558045
aF5.0
aF4.917161787441955
aF4.865964956513796
aF4.865964956513795
aF4.917161787441955
aF5.0
aF5.082838212558044
aF5.134035043486204
aF5.134035043486204
aF5.082838212558045
aF5.000000000000001
aF4.917161787441955
aF4.865964956513795
aF4.865964956513795
aF4.917161787441955
aF7.0
aF6.9360178545309195
aF6.885982981910959
aF6.860802331497404
aF6.865964956513795
aF6.900345472070436
aF6.9564493743858975
aF7.022046744820264
aF7.082838212558044
aF7.125572030862377
aF7.140932784949877
aF7.125572030862378
aF7.082838212558045
aF7.022046744820264
aF6.956449374385898
aF6.900345472070437
aF6.865964956513795
aF6.860802331497404
aF6.88598298191096
aF6.936017854530919
aF7.0
aF7.063982145469081
aF7.11401701808904
aF7.139197668502596
aF7.134035043486205
aF7.099654527929564
aF7.043550625614102
aF6.977953255179736
aF6.917161787441955
aF6.874427969137623
aF6.859067215050123
aF6.874427969137623
aF6.917161787441955
aF6.977953255179735
aF7.043550625614102
aF7.099654527929563
aF7.134035043486204
aF7.139197668502596
aF7.114017018089041
aF7.063982145469081
aF6.0
aF6.043550625614102
aF6.082838212558044
aF6.11401701808904
aF6.134035043486204
aF6.140932784949877
aF6.134035043486204
aF6.114017018089041
aF6.082838212558045
aF6.043550625614102
aF6.000000000000001
aF5.956449374385898
aF5.917161787441955
aF5.885982981910959
aF5.865964956513795
aF5.859067215050123
aF5.865964956513795
aF5.88598298191096
aF5.917161787441955
aF5.9564493743858975
aF6.0
aF6.043550625614102
aF6.082838212558045
aF6.11401701808904
aF6.134035043486204
aF6.140932784949877
aF6.134035043486205
aF6.114017018089041
aF6.082838212558045
aF6.043550625614102
aF6.0
aF5.956449374385898
aF5.917161787441955
aF5.885982981910959
aF5.865964956513796
aF5.859067215050123
aF5.865964956513795
aF5.885982981910959
aF5.917161787441955
aF5.9564493743858975
aF6.0
aF6.043550625614102
aF6.082838212558044
aF6.11401701808904
aF6.134035043486204
aF6.140932784949877
aF6.134035043486204
aF6.114017018089041
aF6.082838212558045
aF6.043550625614102
aF6.000000000000001
aF5.956449374385898
aF5.917161787441955
aF5.885982981910959
aF5.865964956513795
aF5.859067215050123
aF5.865964956513795
aF5.885982981910959
aF5.917161787441955
aF5.9564493743858975
aF6.0
aF6.043550625614102
aF6.082838212558045
aF6.11401701808904
aF6.134035043486204
aF6.140932784949877
aF6.134035043486205
aF6.114017018089041
aF6.082838212558045
aF6.043550625614102
aF6.0
aF5.956449374385898
aF5.917161787441955
aF5.88598298191096
aF5.865964956513796
aF5.859067215050123
aF5.865964956513795
aF5.885982981910959
aF5.917161787441955
aF5.9564493743858975
aF9.0
aF9.043550625614103
aF9.082838212558045
aF9.11401701808904
aF9.134035043486204
aF9.140932784949877
aF9.134035043486204
aF9.11401701808904
aF9.082838212558045
aF9.043550625614103
aF9.0
aF8.9564493743859
aF8.917161787441955
aF8.88598298191096
aF8.865964956513796
aF8.859067215050123
aF8.865964956513796
aF8.88598298191096
aF8.917161787441955
aF8.956449374385897
aF9.0
aF9.043550625614103
aF9.082838212558045
aF9.11401701808904
aF9.134035043486204
aF9.140932784949877
aF9.134035043486204
aF9.11401701808904
aF9.082838212558045
aF9.043550625614103
aF9.0
aF8.956449374385897
aF8.917161787441955
aF8.88598298191096
aF8.865964956513796
aF8.859067215050123
aF8.865964956513796
aF8.88598298191096
aF8.917161787441955
aF8.9564493743859
atp171
tp172
Rp173
s(I14
I3
tp174
g2
(g3
g4
(F8.941863534806405
(lp175
F5.0
aF5.110582128113472
aF5.178925641835892
aF5.178925641835892
aF5.110582128113472
aF5.0
aF4.889417871886528
aF4.821074358164108
aF4.821074358164108
aF4.889417871886528
aF5.0
aF5.110582128113472
aF5.178925641835892
aF5.178925641835892
aF5.110582128113472
aF5.0
aF4.889417871886528
aF4.821074358164108
aF4.821074358164108
aF4.889417871886528
aF5.0
aF5.110582128113472
aF5.178925641835892
aF5.178925641835892
aF5.110582128113472
aF5.0
aF4.889417871886528
aF4.821074358164108
aF4.821074358164108
aF4.889417871886528
aF5.0
aF5.110582128113472
aF5.178925641835892
aF5.178925641835892
aF5.110582128113472
aF5.0
aF4.889417871886528
aF4.821074358164108
aF4.821074358164108
aF4.889417871886528
aF5.0
aF5.110582128113472
aF5.178925641835892
aF5.178925641835892
aF5.110582128113472
aF5.0
aF4.889417871886528
aF4.821074358164108
aF4.821074358164108
aF4.889417871886528
aF5.0
aF5.110582128113471
aF5.178925641835892
aF5.178925641835892
aF5.110582128113472
aF5.000000000000001
aF4.889417871886528
aF4.821074358164108
aF4.821074358164108
aF4.889417871886527
aF7.0
aF6.914589154102293
aF6.84779675813739
aF6.814182682893297
aF6.821074358164108
aF6.866969488665959
aF6.941863534806403
aF7.029430571772552
aF7.110582128113471
aF7.1676282234429225
aF7.1881335533380275
aF7.1676282234429225
aF7.110582128113472
aF7.029430571772552
aF6.941863534806404
aF6.86696948866596
aF6.821074358164108
aF6.814182682893297
aF6.847796758137391
aF6.914589154102292
aF7.0
aF7.085410845897708
aF7.152203241862609
aF7.185817317106703
aF7.178925641835892
aF7.133030511334041
aF7.058136465193596
aF6.970569428227448
aF6.889417871886528
aF6.8323717765570775
aF6.8118664466619725
aF6.8323717765570775
aF6.889417871886528
aF6.9705694282274475
aF7.058136465193596
aF7.13303051133404
aF7.178925641835892
aF7.185817317106703
aF7.15220324186261
aF7.085410845897708
aF6.0
aF6.058136465193596
aF6.110582128113471
aF6.152203241862609
aF6.178925641835892
aF6.1881335533380275
aF6.178925641835892
aF6.15220324186261
aF6.110582128113472
aF6.058136465193596
aF6.000000000000001
aF5.941863534806404
aF5.889417871886528
aF5.84779675813739
aF5.821074358164108
aF5.8118664466619725
aF5.821074358164108
aF5.847796758137391
aF5.889417871886527
aF5.941863534806403
aF6.0
aF6.058136465193596
aF6.110582128113472
aF6.152203241862609
aF6.178925641835892
aF6.1881335533380275
aF6.178925641835892
aF6.15220324186261
aF6.110582128113472
aF6.058136465193596
aF6.0
aF5.941863534806405
aF5.889417871886528
aF5.847796758137391
aF5.821074358164108
aF5.8118664466619725
aF5.821074358164108
aF5.847796758137391
aF5.889417871886528
aF5.941863534806403
aF6.0
aF6.058136465193596
aF6.110582128113471
aF6.152203241862609
aF6.178925641835892
aF6.1881335533380275
aF6.178925641835892
aF6.15220324186261
aF6.110582128113472
aF6.058136465193596
aF6.000000000000001
aF5.941863534806405
aF5.889417871886528
aF5.847796758137391
aF5.821074358164108
aF5.8118664466619725
aF5.821074358164108
aF5.847796758137391
aF5.889417871886527
aF5.941863534806403
aF6.0
aF6.058136465193596
aF6.110582128113472
aF6.152203241862609
aF6.178925641835892
aF6.1881335533380275
aF6.178925641835892
aF6.15220324186261
aF6.110582128113472
aF6.058136465193596
aF6.0
aF5.941863534806405
aF5.889417871886528
aF5.847796758137391
aF5.821074358164108
aF5.8118664466619725
aF5.821074358164108
aF5.84779675813739
aF5.889417871886528
aF5.941863534806403
aF9.0
aF9.058136465193597
aF9.110582128113471
aF9.152203241862608
aF9.178925641835892
aF9.188133553338027
aF9.178925641835892
aF9.15220324186261
aF9.110582128113473
aF9.058136465193597
aF9.000000000000002
aF8.941863534806405
aF8.889417871886529
aF8.84779675813739
aF8.821074358164108
aF8.811866446661973
aF8.821074358164108
aF8.84779675813739
aF8.889417871886527
aF8.941863534806403
aF9.0
aF9.058136465193597
aF9.110582128113473
aF9.152203241862608
aF9.178925641835892
aF9.188133553338027
aF9.178925641835892
aF9.15220324186261
aF9.110582128113473
aF9.058136465193597
aF9.0
aF8.941863534806403
aF8.889417871886527
aF8.847796758137392
aF8.821074358164108
aF8.811866446661973
aF8.821074358164108
aF8.84779675813739
aF8.889417871886529
aF8.941863534806405
atp176
tp177
Rp178
s(I21
I7
tp179
g2
(g3
g4
(F8.963068957784309
(lp180
F5.0
aF5.0702470167056095
aF5.113662060637958
aF5.113662060637958
aF5.0702470167056095
aF5.0
aF4.9297529832943905
aF4.886337939362042
aF4.886337939362042
aF4.9297529832943905
aF5.0
aF5.0702470167056095
aF5.113662060637958
aF5.113662060637958
aF5.0702470167056095
aF5.0
aF4.9297529832943905
aF4.886337939362042
aF4.886337939362042
aF4.9297529832943905
aF5.0
aF5.0702470167056095
aF5.113662060637958
aF5.113662060637958
aF5.0702470167056095
aF5.0
aF4.9297529832943905
aF4.886337939362042
aF4.886337939362042
aF4.9297529832943905
aF5.0
aF5.0702470167056095
aF5.1136620606379575
aF5.113662060637958
aF5.0702470167056095
aF5.0
aF4.9297529832943905
aF4.8863379393620425
aF4.886337939362042
aF4.9297529832943905
aF5.0
aF5.0702470167056095
aF5.1136620606379575
aF5.113662060637958
aF5.0702470167056095
aF5.0
aF4.9297529832943905
aF4.8863379393620425
aF4.886337939362042
aF4.9297529832943905
aF5.0
aF5.0702470167056095
aF5.1136620606379575
aF5.1136620606379575
aF5.0702470167056095
aF5.000000000000001
aF4.9297529832943905
aF4.886337939362042
aF4.886337939362042
aF4.92975298329439
aF7.0
aF6.945742976546265
aF6.903313276239363
aF6.881960020107481
aF6.886337939362042
aF6.91549270473029
aF6.963068957784309
aF7.018695696151196
aF7.0702470167056095
aF7.106485404227739
aF7.119511363089892
aF7.106485404227739
aF7.0702470167056095
aF7.0186956961511955
aF6.963068957784309
aF6.91549270473029
aF6.886337939362042
aF6.881960020107481
aF6.903313276239363
aF6.945742976546265
aF7.0
aF7.054257023453735
aF7.096686723760637
aF7.118039979892519
aF7.113662060637958
aF7.08450729526971
aF7.036931042215691
aF6.9813043038488045
aF6.9297529832943905
aF6.893514595772261
aF6.880488636910108
aF6.893514595772261
aF6.9297529832943905
aF6.981304303848804
aF7.036931042215691
aF7.08450729526971
aF7.1136620606379575
aF7.118039979892519
aF7.096686723760638
aF7.054257023453735
aF6.0
aF6.036931042215691
aF6.0702470167056095
aF6.096686723760637
aF6.1136620606379575
aF6.119511363089892
aF6.1136620606379575
aF6.096686723760638
aF6.0702470167056095
aF6.036931042215691
aF6.000000000000001
aF5.963068957784309
aF5.9297529832943905
aF5.903313276239363
aF5.886337939362042
aF5.880488636910108
aF5.886337939362042
aF5.903313276239363
aF5.92975298329439
aF5.963068957784309
aF6.0
aF6.036931042215691
aF6.0702470167056095
aF6.096686723760637
aF6.1136620606379575
aF6.119511363089892
aF6.113662060637958
aF6.096686723760638
aF6.0702470167056095
aF6.036931042215691
aF6.0
aF5.963068957784309
aF5.9297529832943905
aF5.903313276239363
aF5.8863379393620425
aF5.880488636910108
aF5.886337939362042
aF5.903313276239363
aF5.9297529832943905
aF5.963068957784309
aF6.0
aF6.036931042215691
aF6.070247016705609
aF6.096686723760637
aF6.1136620606379575
aF6.119511363089892
aF6.1136620606379575
aF6.096686723760638
aF6.0702470167056095
aF6.036931042215691
aF6.000000000000001
aF5.963068957784309
aF5.9297529832943905
aF5.903313276239363
aF5.886337939362042
aF5.880488636910108
aF5.886337939362042
aF5.903313276239363
aF5.92975298329439
aF5.963068957784308
aF6.0
aF6.036931042215691
aF6.0702470167056095
aF6.096686723760637
aF6.1136620606379575
aF6.119511363089892
aF6.113662060637958
aF6.096686723760638
aF6.0702470167056095
aF6.036931042215691
aF6.0
aF5.963068957784309
aF5.9297529832943905
aF5.903313276239363
aF5.8863379393620425
aF5.880488636910108
aF5.886337939362042
aF5.903313276239363
aF5.9297529832943905
aF5.963068957784308
aF9.0
aF9.036931042215691
aF9.07024701670561
aF9.096686723760637
aF9.113662060637958
aF9.119511363089892
aF9.113662060637958
aF9.096686723760637
aF9.07024701670561
aF9.036931042215691
aF9.0
aF8.963068957784309
aF8.92975298329439
aF8.903313276239363
aF8.886337939362042
aF8.880488636910108
aF8.886337939362042
aF8.903313276239363
aF8.92975298329439
aF8.963068957784309
aF9.0
aF9.036931042215691
aF9.07024701670561
aF9.096686723760637
aF9.113662060637958
aF9.119511363089892
aF9.113662060637958
aF9.096686723760637
aF9.07024701670561
aF9.036931042215691
aF9.0
aF8.963068957784309
aF8.92975298329439
aF8.903313276239363
aF8.886337939362042
aF8.880488636910108
aF8.886337939362042
aF8.903313276239363
aF8.92975298329439
aF8.963068957784309
atp181
tp182
Rp183
s(I3
I10
tp184
g2
(g3
g4
(F8.963439688244506
(lp185
F5.0
aF5.069541845465691
aF5.112521069603882
aF5.112521069603882
aF5.069541845465691
aF5.0
aF4.930458154534309
aF4.887478930396118
aF4.887478930396118
aF4.930458154534309
aF5.0
aF5.069541845465691
aF5.112521069603882
aF5.112521069603882
aF5.069541845465691
aF5.0
aF4.930458154534309
aF4.887478930396118
aF4.887478930396118
aF4.930458154534309
aF5.0
aF5.069541845465691
aF5.112521069603882
aF5.112521069603882
aF5.069541845465691
aF5.0
aF4.930458154534309
aF4.887478930396118
aF4.887478930396118
aF4.930458154534309
aF5.0
aF5.069541845465691
aF5.112521069603882
aF5.112521069603882
aF5.069541845465691
aF5.0
aF4.930458154534309
aF4.887478930396118
aF4.887478930396118
aF4.930458154534309
aF5.0
aF5.069541845465691
aF5.112521069603882
aF5.112521069603882
aF5.069541845465691
aF5.0
aF4.930458154534309
aF4.887478930396118
aF4.887478930396118
aF4.930458154534308
aF5.0
aF5.069541845465691
aF5.112521069603882
aF5.112521069603882
aF5.069541845465692
aF5.000000000000001
aF4.930458154534309
aF4.887478930396118
aF4.887478930396118
aF4.930458154534308
aF7.0
aF6.946287633021337
aF6.904283861184822
aF6.883144958669777
aF6.887478930396118
aF6.916341027078799
aF6.963439688244505
aF7.018508020320188
aF7.069541845465691
aF7.105416455707873
aF7.118311654119366
aF7.105416455707873
aF7.069541845465692
aF7.018508020320188
aF6.963439688244505
aF6.916341027078799
aF6.887478930396118
aF6.883144958669777
aF6.904283861184822
aF6.946287633021336
aF7.0
aF7.053712366978663
aF7.095716138815178
aF7.116855041330223
aF7.112521069603882
aF7.083658972921201
aF7.036560311755495
aF6.981491979679813
aF6.930458154534309
aF6.894583544292127
aF6.881688345880634
aF6.894583544292127
aF6.930458154534309
aF6.981491979679812
aF7.036560311755495
aF7.083658972921201
aF7.112521069603882
aF7.116855041330223
aF7.095716138815178
aF7.053712366978663
aF6.0
aF6.036560311755495
aF6.069541845465691
aF6.095716138815178
aF6.112521069603882
aF6.118311654119366
aF6.112521069603882
aF6.095716138815178
aF6.069541845465692
aF6.036560311755495
aF6.000000000000001
aF5.963439688244505
aF5.930458154534309
aF5.904283861184822
aF5.887478930396118
aF5.881688345880634
aF5.887478930396118
aF5.904283861184822
aF5.930458154534308
aF5.963439688244504
aF6.0
aF6.036560311755495
aF6.069541845465692
aF6.095716138815178
aF6.112521069603882
aF6.118311654119366
aF6.112521069603882
aF6.095716138815178
aF6.069541845465692
aF6.036560311755495
aF6.0
aF5.963439688244505
aF5.930458154534309
aF5.904283861184822
aF5.887478930396118
aF5.881688345880634
aF5.887478930396118
aF5.904283861184822
aF5.930458154534309
aF5.963439688244504
aF6.0
aF6.036560311755495
aF6.069541845465691
aF6.095716138815178
aF6.112521069603882
aF6.118311654119366
aF6.112521069603882
aF6.095716138815178
aF6.069541845465692
aF6.036560311755495
aF6.000000000000001
aF5.963439688244505
aF5.930458154534309
aF5.904283861184822
aF5.887478930396118
aF5.881688345880634
aF5.887478930396118
aF5.904283861184822
aF5.930458154534308
aF5.963439688244504
aF6.0
aF6.036560311755495
aF6.069541845465692
aF6.095716138815178
aF6.112521069603882
aF6.118311654119366
aF6.112521069603882
aF6.095716138815178
aF6.069541845465692
aF6.036560311755495
aF6.0
aF5.963439688244505
aF5.930458154534309
aF5.904283861184822
aF5.887478930396118
aF5.881688345880634
aF5.887478930396118
aF5.904283861184822
aF5.930458154534309
aF5.963439688244504
aF9.0
aF9.036560311755496
aF9.069541845465691
aF9.095716138815177
aF9.112521069603881
aF9.118311654119367
aF9.112521069603881
aF9.09571613881518
aF9.069541845465691
aF9.036560311755496
aF9.0
aF8.963439688244506
aF8.930458154534309
aF8.904283861184823
aF8.887478930396117
aF8.881688345880633
aF8.887478930396117
aF8.904283861184823
aF8.930458154534307
aF8.963439688244504
aF9.0
aF9.036560311755496
aF9.069541845465691
aF9.095716138815177
aF9.112521069603881
aF9.118311654119367
aF9.112521069603883
aF9.09571613881518
aF9.069541845465691
aF9.036560311755496
aF9.0
aF8.963439688244504
aF8.930458154534309
aF8.904283861184823
aF8.887478930396119
aF8.881688345880633
aF8.887478930396117
aF8.904283861184823
aF8.930458154534309
aF8.963439688244506
atp186
tp187
Rp188
s.