(dp0
(I1
I3
tp1
ccopy_reg
_reconstructor
p2
(c__main__
Link
p3
c__builtin__
tuple
p4
(F9.109035370139669
I3
(lp5
F24.923834766243186
aF14.536702697233638
aF7.6965829150442335
aF8.041407052730111
aF8.542295294768586
aF6.9335526817096484
a(lp6
I5
aI3
aI2
aI3
aI2
aI4
atp7
tp8
Rp9
s(I2
I18
tp10
g2
(g3
g4
(F9.828319017998595
I3
(lp11
F8.476171235198379
aF8.863988106327014
aF12.13522315094098
aF5.378098356950581
aF7.502034653282975
aF17.361254362303733
a(lp12
I5
aI1
aI4
aI2
aI4
aI3
atp13
tp14
Rp15
s(I15
I20
tp16
g2
(g3
g4
(F6.691916454018052
I3
(lp17
F4.687419792998282
aF9.847674698483392
aF9.49174971141439
aF10.2331269570181
aF10.950773636176608
aF5.592163880617715
a(lp18
I4
aI4
aI4
aI2
aI1
aI4
atp19
tp20
Rp21
s(I17
I20
tp22
g2
(g3
g4
(F6.267471334297067
I3
(lp23
F4.622202333031169
aF16.939268284978983
aF4.160162092648882
aF5.257189402777411
aF4.507952648681884
aF4.642665160675247
a(lp24
I3
aI4
aI4
aI3
aI1
aI3
atp25
tp26
Rp27
s(I3
I21
tp28
g2
(g3
g4
(F9.075865128039805
I3
(lp29
F9.038965219361668
aF18.5369287460993
aF15.817657141449095
aF50.927870704956256
aF3.6941085234115327
aF15.329297052023112
a(lp30
I4
aI4
aI4
aI3
aI3
aI1
atp31
tp32
Rp33
s(I8
I9
tp34
g2
(g3
g4
(F7.134119740571165
I2
(lp35
F7.4217673101354755
aF4.905208998255573
aF4.935534442197573
aF4.323115057054523
aF13.769416697081597
aF6.085082286434655
a(lp36
I4
aI3
aI3
aI4
aI1
aI2
atp37
tp38
Rp39
s(I13
I17
tp40
g2
(g3
g4
(F7.1586925317362
I2
(lp41
F20.80452458458903
aF16.081418128757065
aF7.402338725271243
aF10.339341120006221
aF16.239121422127422
aF11.656391050809896
a(lp42
I5
aI4
aI2
aI2
aI2
aI1
atp43
tp44
Rp45
s(I2
I12
tp46
g2
(g3
g4
(F9.90615913822884
I2
(lp47
F15.041069567074949
aF9.02809829716495
aF4.167976642269977
aF8.565575133538626
aF7.457137646276955
aF8.368722869116763
a(lp48
I2
aI1
aI3
aI4
aI1
aI4
atp49
tp50
Rp51
s(I3
I10
tp52
g2
(g3
g4
(F6.8414569689747395
I3
(lp53
F24.99882162316116
aF3.4404159425995604
aF9.86164969401656
aF20.633310673873144
aF54.15927996031782
aF6.909955964690076
a(lp54
I3
aI4
aI1
aI5
aI2
aI4
atp55
tp56
Rp57
s(I5
I8
tp58
g2
(g3
g4
(F9.242945985696522
I2
(lp59
F3.9101814161974673
aF6.623560825673168
aF3.7074990951745326
aF7.967717911062635
aF4.98123945829631
aF6.41306403741663
a(lp60
I2
aI3
aI2
aI4
aI3
aI2
atp61
tp62
Rp63
s(I11
I10
tp64
g2
(g3
g4
(F9.832126859314677
I2
(lp65
F24.23144135633633
aF8.915880860277943
aF12.737157106578826
aF8.417228250413544
aF12.149211338778157
aF4.484267015149482
a(lp66
I3
aI2
aI1
aI1
aI5
aI3
atp67
tp68
Rp69
s(I6
I7
tp70
g2
(g3
g4
(F9.638418637225511
I3
(lp71
F3.21607385192078
aF7.8005180382780015
aF10.6064877671887
aF5.838219605095886
aF10.33857424817309
aF6.0848565612861885
a(lp72
I2
aI4
aI3
aI3
aI5
aI3
atp73
tp74
Rp75
s(I16
I10
tp76
g2
(g3
g4
(F7.107894110792627
I3
(lp77
F4.44982062610063
aF11.119014626307647
aF7.967727602964522
aF3.8666782122443957
aF5.953389817704009
aF12.617959875869412
a(lp78
I2
aI4
aI3
aI3
aI3
aI4
atp79
tp80
Rp81
s(I19
I7
tp82
g2
(g3
g4
(F5.423697159405444
I4
(lp83
F24.36760314709913
aF6.785878892702335
aF5.014595469326719
aF6.975157788239015
aF3.5440842844193767
aF7.526658043530559
a(lp84
I4
aI5
aI2
aI4
aI4
aI5
atp85
tp86
Rp87
s(I1
I16
tp88
g2
(g3
g4
(F5.821389025871145
I2
(lp89
F5.72875444770237
aF9.551681652518777
aF6.238848153946336
aF9.90496125989312
aF8.273103553618132
aF6.8068242790518845
a(lp90
I4
aI1
aI4
aI2
aI1
aI4
atp91
tp92
Rp93
s(I17
I7
tp94
g2
(g3
g4
(F5.403642061233073
I3
(lp95
F14.041481680366605
aF19.859769240669564
aF3.5481352575663974
aF4.10652663170817
aF8.74530842109544
aF3.9209171874173596
a(lp96
I4
aI5
aI3
aI4
aI1
aI4
atp97
tp98
Rp99
s(I2
I23
tp100
g2
(g3
g4
(F7.324844894705285
I2
(lp101
F3.073143477464742
aF7.691627514529786
aF13.728695582803566
aF6.23279334369706
aF11.281460364178924
aF3.510908564647142
a(lp102
I2
aI4
aI1
aI4
aI1
aI5
atp103
tp104
Rp105
s(I16
I9
tp106
g2
(g3
g4
(F7.855214824218082
I3
(lp107
F60.36828006483946
aF7.737515046792132
aF9.380798997810793
aF3.3048996804635116
aF8.404069988983554
aF15.82571197937795
a(lp108
I1
aI2
aI5
aI5
aI2
aI4
atp109
tp110
Rp111
s(I2
I13
tp112
g2
(g3
g4
(F6.8494061111062265
I3
(lp113
F3.563468578084474
aF5.9219610168749455
aF5.82118738244894
aF12.851935806719824
aF10.942349096560967
aF28.439270377930114
a(lp114
I5
aI5
aI1
aI4
aI1
aI5
atp115
tp116
Rp117
s(I17
I23
tp118
g2
(g3
g4
(F5.323504596189784
I3
(lp119
F7.538125545617459
aF3.57867437472173
aF11.600923155567447
aF3.0877424166585876
aF4.895728355633935
aF4.988398347144601
a(lp120
I5
aI4
aI2
aI3
aI1
aI3
atp121
tp122
Rp123
s(I12
I10
tp124
g2
(g3
g4
(F6.196302191815041
I3
(lp125
F5.456283430380176
aF11.274034867661143
aF4.793663513273436
aF12.687071565884272
aF4.590058444797538
aF6.0342155602534
a(lp126
I2
aI5
aI4
aI3
aI1
aI3
atp127
tp128
Rp129
s(I20
I22
tp130
g2
(g3
g4
(F9.933747508111487
I2
(lp131
F19.608474254593105
aF31.173138972374
aF48.27490562455262
aF10.250235866074494
aF9.192865555041307
aF4.047311607089095
a(lp132
I1
aI1
aI3
aI4
aI2
aI2
atp133
tp134
Rp135
s(I19
I6
tp136
g2
(g3
g4
(F5.109235647091415
I4
(lp137
F12.499403489405857
aF3.859522758473637
aF7.237668478195917
aF5.891886527880261
aF4.765884655656635
aF18.59240277369875
a(lp138
I4
aI5
aI4
aI4
aI5
aI4
atp139
tp140
Rp141
s(I16
I4
tp142
g2
(g3
g4
(F5.154884604183838
I3
(lp143
F4.334554434917974
aF8.118616253084943
aF18.662142800009292
aF3.901748265399085
aF6.378222679007185
aF7.749278032669845
a(lp144
I3
aI5
aI4
aI4
aI1
aI3
atp145
tp146
Rp147
s(I17
I10
tp148
g2
(g3
g4
(F6.91997455414692
I2
(lp149
F8.475626418111373
aF5.318980710760989
aF11.680946118333914
aF6.440546569044351
aF7.838152463376806
aF13.027407413527161
a(lp150
I5
aI1
aI3
aI3
aI1
aI4
atp151
tp152
Rp153
s(I15
I9
tp154
g2
(g3
g4
(F7.240704514985675
I3
(lp155
F4.132754080432398
aF3.4098579984064017
aF7.29424595098042
aF9.507889477201399
aF5.681490236238576
aF15.129378886471436
a(lp156
I3
aI5
aI2
aI4
aI4
aI4
atp157
tp158
Rp159
s(I13
I19
tp160
g2
(g3
g4
(F8.09390813912164
I2
(lp161
F17.268565644191558
aF4.111393137290482
aF4.384294327664763
aF3.0209700851201995
aF9.731859188547086
aF3.7761227898220033
a(lp162
I4
aI4
aI2
aI2
aI1
aI3
atp163
tp164
Rp165
s(I18
I21
tp166
g2
(g3
g4
(F6.730269465873574
I2
(lp167
F16.10943657013107
aF24.388684560419602
aF24.813558449611584
aF5.2919756918172505
aF7.50328640943017
aF6.834820467528765
a(lp168
I1
aI4
aI3
aI5
aI2
aI1
atp169
tp170
Rp171
s(I12
I22
tp172
g2
(g3
g4
(F8.109520828490751
I2
(lp173
F10.101580435305682
aF5.950824992676427
aF7.72364434701016
aF20.099629607472647
aF16.870620408177142
aF6.39448470930701
a(lp174
I4
aI2
aI2
aI2
aI2
aI1
atp175
tp176
Rp177
s(I2
I7
tp178
g2
(g3
g4
(F8.598625435584797
I3
(lp179
F13.32264892887872
aF12.713342617520507
aF14.004431248436523
aF9.509446486150901
aF10.117153579013229
aF10.761624869476538
a(lp180
I4
aI5
aI1
aI1
aI5
aI4
atp181
tp182
Rp183
s(I16
I5
tp184
g2
(g3
g4
(F6.649260894324029
I3
(lp185
F9.967974848119914
aF15.428427350315516
aF11.133198689645399
aF18.874236891308225
aF16.539858398928477
aF3.849642397254309
a(lp186
I4
aI5
aI2
aI1
aI5
aI2
atp187
tp188
Rp189
s(I13
I14
tp190
g2
(g3
g4
(F8.533564116693384
I3
(lp191
F14.240047518764873
aF11.150045050268828
aF8.938758251742984
aF3.8821849317720756
aF23.71186817196038
aF10.31332892743746
a(lp192
I4
aI4
aI4
aI2
aI2
aI2
atp193
tp194
Rp195
s(I11
I3
tp196
g2
(g3
g4
(F7.32200618064028
I3
(lp197
F4.144111565303529
aF3.220509049129457
aF5.2504033071446505
aF4.093022819903318
aF20.992896968681276
aF4.952589703424954
a(lp198
I1
aI3
aI4
aI3
aI3
aI5
atp199
tp200
Rp201
s(I1
I7
tp202
g2
(g3
g4
(F8.335486033765473
I3
(lp203
F4.038365508881142
aF6.882118570817482
aF13.529031982530702
aF10.892234113610192
aF22.756932714994107
aF7.332997420668721
a(lp204
I5
aI5
aI3
aI1
aI1
aI3
atp205
tp206
Rp207
s(I14
I3
tp208
g2
(g3
g4
(F9.573986823686873
I4
(lp209
F11.142443173645884
aF28.72865011090815
aF6.573654892435675
aF3.296835009286343
aF4.946998839380136
aF8.254363107720444
a(lp210
I5
aI3
aI4
aI3
aI5
aI4
atp211
tp212
Rp213
s(I21
I7
tp214
g2
(g3
g4
(F8.755183603972242
I3
(lp215
F3.2031385477270016
aF14.391179960271048
aF12.134790513924363
aF3.2454715394772515
aF11.518170007277305
aF3.8633277947880416
a(lp216
I4
aI1
aI5
aI2
aI4
aI2
atp217
tp218
Rp219
s(I2
I4
tp220
g2
(g3
g4
(F5.899318247549044
I3
(lp221
F17.279518157389575
aF10.255191519357373
aF29.85337995237714
aF10.16800799805715
aF6.999301456107531
aF8.446070192709271
a(lp222
I4
aI1
aI3
aI5
aI1
aI4
atp223
tp224
Rp225
s.